Archive member included because of file (symbol)

contiki-OrisenStamp.a(rimeaddr.o)
                              obj_OrisenStamp/contiki-stamp-main.o (rimeaddr_copy)
contiki-OrisenStamp.a(rime.o)
                              obj_OrisenStamp/contiki-stamp-main.o (rime_driver)
contiki-OrisenStamp.a(rimestats.o)
                              contiki-OrisenStamp.a(rime.o) (rimestats)
contiki-OrisenStamp.a(announcement.o)
                              contiki-OrisenStamp.a(rime.o) (announcement_init)
contiki-OrisenStamp.a(broadcast-annou)
                              contiki-OrisenStamp.a(rime.o) (broadcast_announcement_init)
contiki-OrisenStamp.a(broadcast.o)
                              contiki-OrisenStamp.a(broadcast-annou) (broadcast_send)
contiki-OrisenStamp.a(abc.o)  contiki-OrisenStamp.a(rime.o) (abc_input)
contiki-OrisenStamp.a(mesh.o)
                              obj_OrisenStamp/mesh_my.o (mesh_send)
contiki-OrisenStamp.a(route.o)
                              contiki-OrisenStamp.a(mesh.o) (route_refresh)
contiki-OrisenStamp.a(route-discovery)
                              contiki-OrisenStamp.a(mesh.o) (route_discovery_discover)
contiki-OrisenStamp.a(rudolph1.o)
                              obj_OrisenStamp/rudolph1_my.o (rudolph1_stop)
contiki-OrisenStamp.a(chameleon.o)
                              contiki-OrisenStamp.a(rime.o) (chameleon_parse)
contiki-OrisenStamp.a(channel.o)
                              contiki-OrisenStamp.a(abc.o) (channel_close)
contiki-OrisenStamp.a(chameleon-bitop)
                              contiki-OrisenStamp.a(chameleon.o) (chameleon_bitopt)
contiki-OrisenStamp.a(nullrdc.o)
                              obj_OrisenStamp/contiki-stamp-main.o (nullrdc_driver)
contiki-OrisenStamp.a(mac.o)  contiki-OrisenStamp.a(nullrdc.o) (mac_call_sent_callback)
contiki-OrisenStamp.a(framer-802154.o)
                              contiki-OrisenStamp.a(nullrdc.o) (framer_802154)
contiki-OrisenStamp.a(csma.o)
                              obj_OrisenStamp/contiki-stamp-main.o (csma_driver)
contiki-OrisenStamp.a(process.o)
                              obj_OrisenStamp/uart2_handler.o (process_alloc_event)
contiki-OrisenStamp.a(autostart.o)
                              obj_OrisenStamp/contiki-stamp-main.o (autostart_start)
contiki-OrisenStamp.a(serial-line.o)
                              boot.co (serial_line_init)
contiki-OrisenStamp.a(memb.o)
                              contiki-OrisenStamp.a(route.o) (memb_alloc)
contiki-OrisenStamp.a(list.o)
                              contiki-OrisenStamp.a(announcement.o) (list_init)
contiki-OrisenStamp.a(etimer.o)
                              obj_OrisenStamp/commands.o (etimer_expired)
contiki-OrisenStamp.a(ctimer.o)
                              contiki-OrisenStamp.a(broadcast-annou) (ctimer_stop)
contiki-OrisenStamp.a(random.o)
                              contiki-OrisenStamp.a(broadcast-annou) (random_rand)
contiki-OrisenStamp.a(ringbuf.o)
                              contiki-OrisenStamp.a(serial-line.o) (ringbuf_init)
contiki-OrisenStamp.a(packetbuf.o)
                              contiki-OrisenStamp.a(chameleon-bitop) (packetbuf_hdrreduce)
contiki-OrisenStamp.a(queuebuf.o)
                              contiki-OrisenStamp.a(mesh.o) (queuebuf_to_packetbuf)
contiki-OrisenStamp.a(serial-shell.o)
                              boot.co (serial_shell_init)
contiki-OrisenStamp.a(shell.o)
                              obj_OrisenStamp/uart2_handler.o (shell_input)
contiki-OrisenStamp.a(shell-reboot.o)
                              obj_OrisenStamp/commands.o (shell_reboot_init)
contiki-OrisenStamp.a(shell-file.o)
                              boot.co (shell_file_init)
contiki-OrisenStamp.a(clock.o)
                              obj_OrisenStamp/contiki-stamp-main.o (clock_init)
contiki-OrisenStamp.a(button-sensor.o)
                              obj_OrisenStamp/mesh_my.o (button_sensor)
contiki-OrisenStamp.a(sensors.o)
                              contiki-OrisenStamp.a(button-sensor.o) (sensors_changed)
contiki-OrisenStamp.a(uSDcard.o)
                              obj_OrisenStamp/settings_read.o (uSDcard_power_down)
contiki-OrisenStamp.a(ff.o)   contiki-OrisenStamp.a(uSDcard.o) (f_mount)
contiki-OrisenStamp.a(diskio.o)
                              contiki-OrisenStamp.a(uSDcard.o) (disk_initialize)
contiki-OrisenStamp.a(cfs-fat.o)
                              contiki-OrisenStamp.a(shell-file.o) (cfs_remove)
contiki-OrisenStamp.a(RTC.o)  obj_OrisenStamp/uart2_handler.o (RTC_getTime)
contiki-OrisenStamp.a(kbi_events.o)
                              obj_OrisenStamp/contiki-stamp-main.o (kbi_event_process)
contiki-OrisenStamp.a(io-pins.o)
                              obj_OrisenStamp/contiki-stamp-main.o (ioPins_init)
contiki-OrisenStamp.a(watchdog.o)
                              contiki-OrisenStamp.a(shell-reboot.o) (watchdog_reboot)
contiki-OrisenStamp.a(contiki-crm.o)
                              obj_OrisenStamp/contiki-stamp-main.o (cal_ring_osc)
contiki-OrisenStamp.a(contiki-maca.o)
                              contiki-OrisenStamp.a(nullrdc.o) (contiki_maca_driver)
contiki-OrisenStamp.a(contiki-misc.o)
                              contiki-OrisenStamp.a(random.o) (srand)
contiki-OrisenStamp.a(leds.o)
                              obj_OrisenStamp/commands.o (leds_off)
contiki-OrisenStamp.a(contiki-uart.o)
                              obj_OrisenStamp/commands.o (uart1_set_input)
contiki-OrisenStamp.a(dbg-printf.o)
                              boot.co (printf)
contiki-OrisenStamp.a(dbg-sprintf.o)
                              obj_OrisenStamp/uart2_handler.o (sprintf)
contiki-OrisenStamp.a(strformat.o)
                              contiki-OrisenStamp.a(dbg-printf.o) (format_str_v)
contiki-OrisenStamp.a(adc.o)  contiki-OrisenStamp.a(io-pins.o) (adc_service)
contiki-OrisenStamp.a(gpio.o)
                              contiki-OrisenStamp.a(button-sensor.o) (gpio_data_get)
contiki-OrisenStamp.a(gpio-util.o)
                              contiki-OrisenStamp.a(adc.o) (gpio_select_function)
contiki-OrisenStamp.a(i2c.o)  contiki-OrisenStamp.a(RTC.o) (i2c_transferred)
contiki-OrisenStamp.a(maca.o)
                              contiki-OrisenStamp.a(contiki-maca.o) (free_packet)
contiki-OrisenStamp.a(nvm.o)  obj_OrisenStamp/contiki-stamp-main.o (nvm_detect)
contiki-OrisenStamp.a(uart1.o)
                              obj_OrisenStamp/contiki-stamp-main.o (uart1_getc)
contiki-OrisenStamp.a(uart2.o)
                              obj_OrisenStamp/uart2_handler.o (uart2_putc)
contiki-OrisenStamp.a(default_lowleve)
                              obj_OrisenStamp/contiki-stamp-main.o (default_vreg_init)
contiki-OrisenStamp.a(isr.o)  obj_OrisenStamp/start.o (irq)
contiki-OrisenStamp.a(unicast.o)
                              contiki-OrisenStamp.a(route-discovery) (unicast_send)
contiki-OrisenStamp.a(ipolite.o)
                              contiki-OrisenStamp.a(rudolph1.o) (ipolite_send)
contiki-OrisenStamp.a(netflood.o)
                              contiki-OrisenStamp.a(route-discovery) (netflood_send)
contiki-OrisenStamp.a(multihop.o)
                              contiki-OrisenStamp.a(mesh.o) (multihop_resend)
contiki-OrisenStamp.a(trickle.o)
                              contiki-OrisenStamp.a(rudolph1.o) (trickle_send)
contiki-OrisenStamp.a(frame802154.o)
                              contiki-OrisenStamp.a(framer-802154.o) (frame802154_parse)
contiki-OrisenStamp.a(timer.o)
                              contiki-OrisenStamp.a(etimer.o) (timer_reset)
contiki-OrisenStamp.a(debug-uart.o)
                              contiki-OrisenStamp.a(dbg-printf.o) (dbg_send_bytes)
contiki-OrisenStamp.a(leds-arch.o)
                              contiki-OrisenStamp.a(leds.o) (leds_arch_get)
/home/user/CodeSourcery/Sourcery_G++_Lite/bin/../lib/gcc/arm-none-eabi/4.3.2/libgcc.a(_udivsi3.o)
                              contiki-OrisenStamp.a(clock.o) (__aeabi_uidiv)
/home/user/CodeSourcery/Sourcery_G++_Lite/bin/../lib/gcc/arm-none-eabi/4.3.2/libgcc.a(_divsi3.o)
                              obj_OrisenStamp/contiki-stamp-main.o (__aeabi_idiv)
/home/user/CodeSourcery/Sourcery_G++_Lite/bin/../lib/gcc/arm-none-eabi/4.3.2/libgcc.a(_dvmd_tls.o)
                              /home/user/CodeSourcery/Sourcery_G++_Lite/bin/../lib/gcc/arm-none-eabi/4.3.2/libgcc.a(_udivsi3.o) (__aeabi_idiv0)
/home/user/CodeSourcery/Sourcery_G++_Lite/bin/../lib/gcc/arm-none-eabi/4.3.2/libgcc.a(_aeabi_uldivmod.o)
                              contiki-OrisenStamp.a(strformat.o) (__aeabi_uldivmod)
/home/user/CodeSourcery/Sourcery_G++_Lite/bin/../lib/gcc/arm-none-eabi/4.3.2/libgcc.a(bpabi.o)
                              /home/user/CodeSourcery/Sourcery_G++_Lite/bin/../lib/gcc/arm-none-eabi/4.3.2/libgcc.a(_aeabi_uldivmod.o) (__gnu_uldivmod_helper)
/home/user/CodeSourcery/Sourcery_G++_Lite/bin/../lib/gcc/arm-none-eabi/4.3.2/libgcc.a(_divdi3.o)
                              /home/user/CodeSourcery/Sourcery_G++_Lite/bin/../lib/gcc/arm-none-eabi/4.3.2/libgcc.a(bpabi.o) (__divdi3)
/home/user/CodeSourcery/Sourcery_G++_Lite/bin/../lib/gcc/arm-none-eabi/4.3.2/libgcc.a(_udivdi3.o)
                              /home/user/CodeSourcery/Sourcery_G++_Lite/bin/../lib/gcc/arm-none-eabi/4.3.2/libgcc.a(bpabi.o) (__udivdi3)
/home/user/CodeSourcery/Sourcery_G++_Lite/bin/../lib/gcc/arm-none-eabi/4.3.2/libgcc.a(_clz.o)
                              /home/user/CodeSourcery/Sourcery_G++_Lite/bin/../lib/gcc/arm-none-eabi/4.3.2/libgcc.a(_divdi3.o) (__clz_tab)
/home/user/CodeSourcery/Sourcery_G++_Lite/bin/../lib/gcc/arm-none-eabi/4.3.2/../../../../arm-none-eabi/lib/libc.a(lib_a-ctype_.o)
                              contiki-OrisenStamp.a(shell.o) (__ctype_ptr__)
/home/user/CodeSourcery/Sourcery_G++_Lite/bin/../lib/gcc/arm-none-eabi/4.3.2/../../../../arm-none-eabi/lib/libc.a(lib_a-memcmp.o)
                              obj_OrisenStamp/contiki-stamp-main.o (memcmp)
/home/user/CodeSourcery/Sourcery_G++_Lite/bin/../lib/gcc/arm-none-eabi/4.3.2/../../../../arm-none-eabi/lib/libc.a(lib_a-memcpy.o)
                              obj_OrisenStamp/commands.o (memcpy)
/home/user/CodeSourcery/Sourcery_G++_Lite/bin/../lib/gcc/arm-none-eabi/4.3.2/../../../../arm-none-eabi/lib/libc.a(lib_a-memset.o)
                              contiki-OrisenStamp.a(chameleon-bitop) (memset)
/home/user/CodeSourcery/Sourcery_G++_Lite/bin/../lib/gcc/arm-none-eabi/4.3.2/../../../../arm-none-eabi/lib/libc.a(lib_a-strchr.o)
                              obj_OrisenStamp/commands.o (strchr)
/home/user/CodeSourcery/Sourcery_G++_Lite/bin/../lib/gcc/arm-none-eabi/4.3.2/../../../../arm-none-eabi/lib/libc.a(lib_a-strcmp.o)
                              obj_OrisenStamp/commands.o (strcmp)
/home/user/CodeSourcery/Sourcery_G++_Lite/bin/../lib/gcc/arm-none-eabi/4.3.2/../../../../arm-none-eabi/lib/libc.a(lib_a-strlen.o)
                              obj_OrisenStamp/commands.o (strlen)
/home/user/CodeSourcery/Sourcery_G++_Lite/bin/../lib/gcc/arm-none-eabi/4.3.2/../../../../arm-none-eabi/lib/libc.a(lib_a-strncmp.o)
                              contiki-OrisenStamp.a(shell.o) (strncmp)
/home/user/CodeSourcery/Sourcery_G++_Lite/bin/../lib/gcc/arm-none-eabi/4.3.2/../../../../arm-none-eabi/lib/libc.a(lib_a-strncpy.o)
                              obj_OrisenStamp/commands.o (strncpy)
/home/user/CodeSourcery/Sourcery_G++_Lite/bin/../lib/gcc/arm-none-eabi/4.3.2/../../../../arm-none-eabi/lib/libc.a(lib_a-strstr.o)
                              obj_OrisenStamp/settings_read.o (strstr)
/home/user/CodeSourcery/Sourcery_G++_Lite/bin/../lib/gcc/arm-none-eabi/4.3.2/../../../../arm-none-eabi/lib/libc.a(lib_a-memchr.o)
                              /home/user/CodeSourcery/Sourcery_G++_Lite/bin/../lib/gcc/arm-none-eabi/4.3.2/../../../../arm-none-eabi/lib/libc.a(lib_a-strstr.o) (memchr)

Discarded input sections

 .text          0x00000000        0x0 boot.co
 .data          0x00000000        0x0 boot.co
 .bss           0x00000000        0x0 boot.co
 .text          0x00000000        0x0 obj_OrisenStamp/commands.o
 .data          0x00000000        0x0 obj_OrisenStamp/commands.o
 .bss           0x00000000        0x0 obj_OrisenStamp/commands.o
 .text          0x00000000        0x0 obj_OrisenStamp/uart2_handler.o
 .data          0x00000000        0x0 obj_OrisenStamp/uart2_handler.o
 .bss           0x00000000        0x0 obj_OrisenStamp/uart2_handler.o
 .text          0x00000000        0x0 obj_OrisenStamp/mesh_my.o
 .data          0x00000000        0x0 obj_OrisenStamp/mesh_my.o
 .bss           0x00000000        0x0 obj_OrisenStamp/mesh_my.o
 .text          0x00000000        0x0 obj_OrisenStamp/rudolph1_my.o
 .data          0x00000000        0x0 obj_OrisenStamp/rudolph1_my.o
 .bss           0x00000000        0x0 obj_OrisenStamp/rudolph1_my.o
 .text.rudolph1_set_receive
                0x00000000        0x0 obj_OrisenStamp/rudolph1_my.o
 .text.rudolph1_read_from
                0x00000000        0x0 obj_OrisenStamp/rudolph1_my.o
 .text.rudolph1_pause
                0x00000000        0x0 obj_OrisenStamp/rudolph1_my.o
 .text          0x00000000        0x0 obj_OrisenStamp/settings_read.o
 .data          0x00000000        0x0 obj_OrisenStamp/settings_read.o
 .bss           0x00000000        0x0 obj_OrisenStamp/settings_read.o
 .text          0x00000000        0x0 obj_OrisenStamp/uarts_test.o
 .data          0x00000000        0x0 obj_OrisenStamp/uarts_test.o
 .bss           0x00000000        0x0 obj_OrisenStamp/uarts_test.o
 .text          0x00000000        0x0 obj_OrisenStamp/contiki-stamp-main.o
 .data          0x00000000        0x0 obj_OrisenStamp/contiki-stamp-main.o
 .bss           0x00000000        0x0 obj_OrisenStamp/contiki-stamp-main.o
 .text.iab_to_eui64
                0x00000000        0x0 obj_OrisenStamp/contiki-stamp-main.o
 .text.oui_to_eui64
                0x00000000        0x0 obj_OrisenStamp/contiki-stamp-main.o
 .text.uip_log  0x00000000        0x0 obj_OrisenStamp/contiki-stamp-main.o
 .bss.count     0x00000000        0x0 obj_OrisenStamp/contiki-stamp-main.o
 .bss.timer_delay
                0x00000000        0x0 obj_OrisenStamp/contiki-stamp-main.o
 .text          0x00000000        0x0 obj_OrisenStamp/start.o
 .data          0x00000000        0x0 obj_OrisenStamp/start.o
 .bss           0x00000000        0x0 obj_OrisenStamp/start.o
 .text          0x00000000        0x0 contiki-OrisenStamp.a(rimeaddr.o)
 .data          0x00000000        0x0 contiki-OrisenStamp.a(rimeaddr.o)
 .bss           0x00000000        0x0 contiki-OrisenStamp.a(rimeaddr.o)
 .text          0x00000000        0x0 contiki-OrisenStamp.a(rime.o)
 .data          0x00000000        0x0 contiki-OrisenStamp.a(rime.o)
 .bss           0x00000000        0x0 contiki-OrisenStamp.a(rime.o)
 .text.rime_sniffer_remove
                0x00000000        0x0 contiki-OrisenStamp.a(rime.o)
 .text.rime_sniffer_add
                0x00000000        0x0 contiki-OrisenStamp.a(rime.o)
 .text          0x00000000        0x0 contiki-OrisenStamp.a(rimestats.o)
 .data          0x00000000        0x0 contiki-OrisenStamp.a(rimestats.o)
 .bss           0x00000000        0x0 contiki-OrisenStamp.a(rimestats.o)
 .text          0x00000000        0x0 contiki-OrisenStamp.a(announcement.o)
 .data          0x00000000        0x0 contiki-OrisenStamp.a(announcement.o)
 .bss           0x00000000        0x0 contiki-OrisenStamp.a(announcement.o)
 .text.announcement_remove_value
                0x00000000        0x0 contiki-OrisenStamp.a(announcement.o)
 .text.announcement_set_value
                0x00000000        0x0 contiki-OrisenStamp.a(announcement.o)
 .text.announcement_bump
                0x00000000        0x0 contiki-OrisenStamp.a(announcement.o)
 .text.announcement_listen
                0x00000000        0x0 contiki-OrisenStamp.a(announcement.o)
 .text.announcement_register_listen_callback
                0x00000000        0x0 contiki-OrisenStamp.a(announcement.o)
 .text.announcement_remove
                0x00000000        0x0 contiki-OrisenStamp.a(announcement.o)
 .text.announcement_register
                0x00000000        0x0 contiki-OrisenStamp.a(announcement.o)
 .bss.listen_callback
                0x00000000        0x0 contiki-OrisenStamp.a(announcement.o)
 .text          0x00000000        0x0 contiki-OrisenStamp.a(broadcast-annou)
 .data          0x00000000        0x0 contiki-OrisenStamp.a(broadcast-annou)
 .bss           0x00000000        0x0 contiki-OrisenStamp.a(broadcast-annou)
 .text.broadcast_announcement_beacon_interval
                0x00000000        0x0 contiki-OrisenStamp.a(broadcast-annou)
 .text.broadcast_announcement_stop
                0x00000000        0x0 contiki-OrisenStamp.a(broadcast-annou)
 .text          0x00000000        0x0 contiki-OrisenStamp.a(broadcast.o)
 .data          0x00000000        0x0 contiki-OrisenStamp.a(broadcast.o)
 .bss           0x00000000        0x0 contiki-OrisenStamp.a(broadcast.o)
 .text          0x00000000        0x0 contiki-OrisenStamp.a(abc.o)
 .data          0x00000000        0x0 contiki-OrisenStamp.a(abc.o)
 .bss           0x00000000        0x0 contiki-OrisenStamp.a(abc.o)
 .text          0x00000000        0x0 contiki-OrisenStamp.a(mesh.o)
 .data          0x00000000        0x0 contiki-OrisenStamp.a(mesh.o)
 .bss           0x00000000        0x0 contiki-OrisenStamp.a(mesh.o)
 .text          0x00000000        0x0 contiki-OrisenStamp.a(route.o)
 .data          0x00000000        0x0 contiki-OrisenStamp.a(route.o)
 .bss           0x00000000        0x0 contiki-OrisenStamp.a(route.o)
 .text.route_set_lifetime
                0x00000000        0x0 contiki-OrisenStamp.a(route.o)
 .text.route_get
                0x00000000        0x0 contiki-OrisenStamp.a(route.o)
 .text.route_num
                0x00000000        0x0 contiki-OrisenStamp.a(route.o)
 .text.route_flush_all
                0x00000000        0x0 contiki-OrisenStamp.a(route.o)
 .text.route_remove
                0x00000000        0x0 contiki-OrisenStamp.a(route.o)
 .text.route_decay
                0x00000000        0x0 contiki-OrisenStamp.a(route.o)
 .text          0x00000000        0x0 contiki-OrisenStamp.a(route-discovery)
 .data          0x00000000        0x0 contiki-OrisenStamp.a(route-discovery)
 .bss           0x00000000        0x0 contiki-OrisenStamp.a(route-discovery)
 .text          0x00000000        0x0 contiki-OrisenStamp.a(rudolph1.o)
 .data          0x00000000        0x0 contiki-OrisenStamp.a(rudolph1.o)
 .bss           0x00000000        0x0 contiki-OrisenStamp.a(rudolph1.o)
 .text.rudolph1_stop
                0x00000000        0x0 contiki-OrisenStamp.a(rudolph1.o)
 .text          0x00000000        0x0 contiki-OrisenStamp.a(chameleon.o)
 .data          0x00000000        0x0 contiki-OrisenStamp.a(chameleon.o)
 .bss           0x00000000        0x0 contiki-OrisenStamp.a(chameleon.o)
 .text          0x00000000        0x0 contiki-OrisenStamp.a(channel.o)
 .data          0x00000000        0x0 contiki-OrisenStamp.a(channel.o)
 .bss           0x00000000        0x0 contiki-OrisenStamp.a(channel.o)
 .text          0x00000000        0x0 contiki-OrisenStamp.a(chameleon-bitop)
 .data          0x00000000        0x0 contiki-OrisenStamp.a(chameleon-bitop)
 .bss           0x00000000        0x0 contiki-OrisenStamp.a(chameleon-bitop)
 .text          0x00000000        0x0 contiki-OrisenStamp.a(nullrdc.o)
 .data          0x00000000        0x0 contiki-OrisenStamp.a(nullrdc.o)
 .bss           0x00000000        0x0 contiki-OrisenStamp.a(nullrdc.o)
 .text          0x00000000        0x0 contiki-OrisenStamp.a(mac.o)
 .data          0x00000000        0x0 contiki-OrisenStamp.a(mac.o)
 .bss           0x00000000        0x0 contiki-OrisenStamp.a(mac.o)
 .text          0x00000000        0x0 contiki-OrisenStamp.a(framer-802154.o)
 .data          0x00000000        0x0 contiki-OrisenStamp.a(framer-802154.o)
 .bss           0x00000000        0x0 contiki-OrisenStamp.a(framer-802154.o)
 .text          0x00000000        0x0 contiki-OrisenStamp.a(csma.o)
 .data          0x00000000        0x0 contiki-OrisenStamp.a(csma.o)
 .bss           0x00000000        0x0 contiki-OrisenStamp.a(csma.o)
 .text          0x00000000        0x0 contiki-OrisenStamp.a(process.o)
 .data          0x00000000        0x0 contiki-OrisenStamp.a(process.o)
 .bss           0x00000000        0x0 contiki-OrisenStamp.a(process.o)
 .text.process_nevents
                0x00000000        0x0 contiki-OrisenStamp.a(process.o)
 .text          0x00000000        0x0 contiki-OrisenStamp.a(autostart.o)
 .data          0x00000000        0x0 contiki-OrisenStamp.a(autostart.o)
 .bss           0x00000000        0x0 contiki-OrisenStamp.a(autostart.o)
 .text.autostart_exit
                0x00000000        0x0 contiki-OrisenStamp.a(autostart.o)
 .text          0x00000000        0x0 contiki-OrisenStamp.a(serial-line.o)
 .data          0x00000000        0x0 contiki-OrisenStamp.a(serial-line.o)
 .bss           0x00000000        0x0 contiki-OrisenStamp.a(serial-line.o)
 .text          0x00000000        0x0 contiki-OrisenStamp.a(memb.o)
 .data          0x00000000        0x0 contiki-OrisenStamp.a(memb.o)
 .bss           0x00000000        0x0 contiki-OrisenStamp.a(memb.o)
 .text          0x00000000        0x0 contiki-OrisenStamp.a(list.o)
 .data          0x00000000        0x0 contiki-OrisenStamp.a(list.o)
 .bss           0x00000000        0x0 contiki-OrisenStamp.a(list.o)
 .text.list_copy
                0x00000000        0x0 contiki-OrisenStamp.a(list.o)
 .text          0x00000000        0x0 contiki-OrisenStamp.a(etimer.o)
 .data          0x00000000        0x0 contiki-OrisenStamp.a(etimer.o)
 .bss           0x00000000        0x0 contiki-OrisenStamp.a(etimer.o)
 .text.etimer_expiration_time
                0x00000000        0x0 contiki-OrisenStamp.a(etimer.o)
 .text.etimer_start_time
                0x00000000        0x0 contiki-OrisenStamp.a(etimer.o)
 .text.etimer_adjust
                0x00000000        0x0 contiki-OrisenStamp.a(etimer.o)
 .text.etimer_restart
                0x00000000        0x0 contiki-OrisenStamp.a(etimer.o)
 .text          0x00000000        0x0 contiki-OrisenStamp.a(ctimer.o)
 .data          0x00000000        0x0 contiki-OrisenStamp.a(ctimer.o)
 .bss           0x00000000        0x0 contiki-OrisenStamp.a(ctimer.o)
 .text.ctimer_expired
                0x00000000        0x0 contiki-OrisenStamp.a(ctimer.o)
 .text.ctimer_restart
                0x00000000        0x0 contiki-OrisenStamp.a(ctimer.o)
 .text.ctimer_reset
                0x00000000        0x0 contiki-OrisenStamp.a(ctimer.o)
 .text          0x00000000        0x0 contiki-OrisenStamp.a(random.o)
 .data          0x00000000        0x0 contiki-OrisenStamp.a(random.o)
 .bss           0x00000000        0x0 contiki-OrisenStamp.a(random.o)
 .text.random_init
                0x00000000        0x0 contiki-OrisenStamp.a(random.o)
 .text          0x00000000        0x0 contiki-OrisenStamp.a(ringbuf.o)
 .data          0x00000000        0x0 contiki-OrisenStamp.a(ringbuf.o)
 .bss           0x00000000        0x0 contiki-OrisenStamp.a(ringbuf.o)
 .text.ringbuf_size
                0x00000000        0x0 contiki-OrisenStamp.a(ringbuf.o)
 .text.ringbuf_elements
                0x00000000        0x0 contiki-OrisenStamp.a(ringbuf.o)
 .text          0x00000000        0x0 contiki-OrisenStamp.a(packetbuf.o)
 .data          0x00000000        0x0 contiki-OrisenStamp.a(packetbuf.o)
 .bss           0x00000000        0x0 contiki-OrisenStamp.a(packetbuf.o)
 .text.packetbuf_clear_hdr
                0x00000000        0x0 contiki-OrisenStamp.a(packetbuf.o)
 .text.packetbuf_hdr_remove
                0x00000000        0x0 contiki-OrisenStamp.a(packetbuf.o)
 .text.packetbuf_reference
                0x00000000        0x0 contiki-OrisenStamp.a(packetbuf.o)
 .text          0x00000000        0x0 contiki-OrisenStamp.a(queuebuf.o)
 .data          0x00000000        0x0 contiki-OrisenStamp.a(queuebuf.o)
 .bss           0x00000000        0x0 contiki-OrisenStamp.a(queuebuf.o)
 .text.queuebuf_addr
                0x00000000        0x0 contiki-OrisenStamp.a(queuebuf.o)
 .text.queuebuf_attr
                0x00000000        0x0 contiki-OrisenStamp.a(queuebuf.o)
 .text.queuebuf_debug_print
                0x00000000        0x0 contiki-OrisenStamp.a(queuebuf.o)
 .text          0x00000000        0x0 contiki-OrisenStamp.a(serial-shell.o)
 .data          0x00000000        0x0 contiki-OrisenStamp.a(serial-shell.o)
 .bss           0x00000000        0x0 contiki-OrisenStamp.a(serial-shell.o)
 .text          0x00000000        0x0 contiki-OrisenStamp.a(shell.o)
 .data          0x00000000        0x0 contiki-OrisenStamp.a(shell.o)
 .bss           0x00000000        0x0 contiki-OrisenStamp.a(shell.o)
 .text.shell_unregister_command
                0x00000000        0x0 contiki-OrisenStamp.a(shell.o)
 .text.shell_stop
                0x00000000        0x0 contiki-OrisenStamp.a(shell.o)
 .text.shell_quit
                0x00000000        0x0 contiki-OrisenStamp.a(shell.o)
 .text.shell_start
                0x00000000        0x0 contiki-OrisenStamp.a(shell.o)
 .data.shell_banner_text
                0x00000000        0x0 contiki-OrisenStamp.a(shell.o)
 .text          0x00000000        0x0 contiki-OrisenStamp.a(shell-reboot.o)
 .data          0x00000000        0x0 contiki-OrisenStamp.a(shell-reboot.o)
 .bss           0x00000000        0x0 contiki-OrisenStamp.a(shell-reboot.o)
 .text          0x00000000        0x0 contiki-OrisenStamp.a(shell-file.o)
 .data          0x00000000        0x0 contiki-OrisenStamp.a(shell-file.o)
 .bss           0x00000000        0x0 contiki-OrisenStamp.a(shell-file.o)
 .text          0x00000000        0x0 contiki-OrisenStamp.a(clock.o)
 .data          0x00000000        0x0 contiki-OrisenStamp.a(clock.o)
 .bss           0x00000000        0x0 contiki-OrisenStamp.a(clock.o)
 .text.clock_wait
                0x00000000        0x0 contiki-OrisenStamp.a(clock.o)
 .text.clock_delay
                0x00000000        0x0 contiki-OrisenStamp.a(clock.o)
 .text.clock_adjust_ticks
                0x00000000        0x0 contiki-OrisenStamp.a(clock.o)
 .text          0x00000000        0x0 contiki-OrisenStamp.a(button-sensor.o)
 .data          0x00000000        0x0 contiki-OrisenStamp.a(button-sensor.o)
 .bss           0x00000000        0x0 contiki-OrisenStamp.a(button-sensor.o)
 .text          0x00000000        0x0 contiki-OrisenStamp.a(sensors.o)
 .data          0x00000000        0x0 contiki-OrisenStamp.a(sensors.o)
 .bss           0x00000000        0x0 contiki-OrisenStamp.a(sensors.o)
 .text.sensors_first
                0x00000000        0x0 contiki-OrisenStamp.a(sensors.o)
 .text.sensors_next
                0x00000000        0x0 contiki-OrisenStamp.a(sensors.o)
 .text.sensors_find
                0x00000000        0x0 contiki-OrisenStamp.a(sensors.o)
 .text          0x00000000        0x0 contiki-OrisenStamp.a(uSDcard.o)
 .data          0x00000000        0x0 contiki-OrisenStamp.a(uSDcard.o)
 .bss           0x00000000        0x0 contiki-OrisenStamp.a(uSDcard.o)
 .text.set_fletcher_ck
                0x00000000        0x0 contiki-OrisenStamp.a(uSDcard.o)
 .text.check_fletcher_ck
                0x00000000        0x0 contiki-OrisenStamp.a(uSDcard.o)
 .text.uSDcard_power_up
                0x00000000        0x0 contiki-OrisenStamp.a(uSDcard.o)
 .text.die      0x00000000        0x0 contiki-OrisenStamp.a(uSDcard.o)
 .text.sd_card_close_data_file
                0x00000000        0x0 contiki-OrisenStamp.a(uSDcard.o)
 .text.sd_card_open_data_file
                0x00000000        0x0 contiki-OrisenStamp.a(uSDcard.o)
 .text.sd_card_read_data_file
                0x00000000        0x0 contiki-OrisenStamp.a(uSDcard.o)
 .text.test_write_data
                0x00000000        0x0 contiki-OrisenStamp.a(uSDcard.o)
 .bss.file_str  0x00000000        0x0 contiki-OrisenStamp.a(uSDcard.o)
 .bss.buff      0x00000000        0x0 contiki-OrisenStamp.a(uSDcard.o)
 .bss.nvm_data  0x00000000        0x0 contiki-OrisenStamp.a(uSDcard.o)
 .bss.type      0x00000000        0x0 contiki-OrisenStamp.a(uSDcard.o)
 .bss.shadow_command
                0x00000000        0x0 contiki-OrisenStamp.a(uSDcard.o)
 .bss.sensor_state
                0x00000000        0x0 contiki-OrisenStamp.a(uSDcard.o)
 .bss.system_command
                0x00000000        0x0 contiki-OrisenStamp.a(uSDcard.o)
 .bss.dir       0x00000000        0x0 contiki-OrisenStamp.a(uSDcard.o)
 .bss.data_file_count
                0x00000000        0x0 contiki-OrisenStamp.a(uSDcard.o)
 .bss.data_packet_count
                0x00000000        0x0 contiki-OrisenStamp.a(uSDcard.o)
 .bss.shadow_event
                0x00000000        0x0 contiki-OrisenStamp.a(uSDcard.o)
 .bss.err       0x00000000        0x0 contiki-OrisenStamp.a(uSDcard.o)
 .bss.file_number
                0x00000000        0x0 contiki-OrisenStamp.a(uSDcard.o)
 .bss.iir_state
                0x00000000        0x0 contiki-OrisenStamp.a(uSDcard.o)
 .bss.rc        0x00000000        0x0 contiki-OrisenStamp.a(uSDcard.o)
 .bss.fno       0x00000000        0x0 contiki-OrisenStamp.a(uSDcard.o)
 .bss.data_file_number
                0x00000000        0x0 contiki-OrisenStamp.a(uSDcard.o)
 .bss.system_event
                0x00000000        0x0 contiki-OrisenStamp.a(uSDcard.o)
 .bss.bw        0x00000000        0x0 contiki-OrisenStamp.a(uSDcard.o)
 .bss.shadow_state
                0x00000000        0x0 contiki-OrisenStamp.a(uSDcard.o)
 .bss.system_state
                0x00000000        0x0 contiki-OrisenStamp.a(uSDcard.o)
 .bss.br        0x00000000        0x0 contiki-OrisenStamp.a(uSDcard.o)
 .bss.io_state  0x00000000        0x0 contiki-OrisenStamp.a(uSDcard.o)
 .bss.fil       0x00000000        0x0 contiki-OrisenStamp.a(uSDcard.o)
 .text          0x00000000        0x0 contiki-OrisenStamp.a(ff.o)
 .data          0x00000000        0x0 contiki-OrisenStamp.a(ff.o)
 .bss           0x00000000        0x0 contiki-OrisenStamp.a(ff.o)
 .text.get_fileinfo
                0x00000000        0x0 contiki-OrisenStamp.a(ff.o)
 .text.f_truncate
                0x00000000        0x0 contiki-OrisenStamp.a(ff.o)
 .text.dir_remove
                0x00000000        0x0 contiki-OrisenStamp.a(ff.o)
 .text.f_stat   0x00000000        0x0 contiki-OrisenStamp.a(ff.o)
 .text.f_opendir
                0x00000000        0x0 contiki-OrisenStamp.a(ff.o)
 .text.dir_read
                0x00000000        0x0 contiki-OrisenStamp.a(ff.o)
 .text.f_readdir
                0x00000000        0x0 contiki-OrisenStamp.a(ff.o)
 .text.f_getfree
                0x00000000        0x0 contiki-OrisenStamp.a(ff.o)
 .text.f_putc   0x00000000        0x0 contiki-OrisenStamp.a(ff.o)
 .text.f_puts   0x00000000        0x0 contiki-OrisenStamp.a(ff.o)
 .text.f_printf
                0x00000000        0x0 contiki-OrisenStamp.a(ff.o)
 .text.f_gets   0x00000000        0x0 contiki-OrisenStamp.a(ff.o)
 .text.f_rename
                0x00000000        0x0 contiki-OrisenStamp.a(ff.o)
 .text.f_utime  0x00000000        0x0 contiki-OrisenStamp.a(ff.o)
 .text.f_chmod  0x00000000        0x0 contiki-OrisenStamp.a(ff.o)
 .text.f_unlink
                0x00000000        0x0 contiki-OrisenStamp.a(ff.o)
 .text.f_mkdir  0x00000000        0x0 contiki-OrisenStamp.a(ff.o)
 .text          0x00000000        0x0 contiki-OrisenStamp.a(diskio.o)
 .data          0x00000000        0x0 contiki-OrisenStamp.a(diskio.o)
 .bss           0x00000000        0x0 contiki-OrisenStamp.a(diskio.o)
 .text.spi_isr  0x00000000        0x0 contiki-OrisenStamp.a(diskio.o)
 .text          0x00000000        0x0 contiki-OrisenStamp.a(cfs-fat.o)
 .data          0x00000000        0x0 contiki-OrisenStamp.a(cfs-fat.o)
 .bss           0x00000000        0x0 contiki-OrisenStamp.a(cfs-fat.o)
 .text          0x00000000        0x0 contiki-OrisenStamp.a(RTC.o)
 .data          0x00000000        0x0 contiki-OrisenStamp.a(RTC.o)
 .bss           0x00000000        0x0 contiki-OrisenStamp.a(RTC.o)
 .text.RTC_alarmExpired
                0x00000000        0x0 contiki-OrisenStamp.a(RTC.o)
 .text.RTC_clearAlarm
                0x00000000        0x0 contiki-OrisenStamp.a(RTC.o)
 .text.RTC_getAlarm
                0x00000000        0x0 contiki-OrisenStamp.a(RTC.o)
 .text.RTC_setTime
                0x00000000        0x0 contiki-OrisenStamp.a(RTC.o)
 .text.RTC_setAlarm
                0x00000000        0x0 contiki-OrisenStamp.a(RTC.o)
 .rodata.RTC_setAlarm
                0x00000000        0x0 contiki-OrisenStamp.a(RTC.o)
 .bss.rxbuf.4527
                0x00000000        0x0 contiki-OrisenStamp.a(RTC.o)
 .bss.rxbuf.4269
                0x00000000        0x0 contiki-OrisenStamp.a(RTC.o)
 .bss.txbuf.4405
                0x00000000        0x0 contiki-OrisenStamp.a(RTC.o)
 .bss.txbuf.4528
                0x00000000        0x0 contiki-OrisenStamp.a(RTC.o)
 .bss.txbuf.4270
                0x00000000        0x0 contiki-OrisenStamp.a(RTC.o)
 .bss.rxbuf.4404
                0x00000000        0x0 contiki-OrisenStamp.a(RTC.o)
 .bss.rxbuf.4357
                0x00000000        0x0 contiki-OrisenStamp.a(RTC.o)
 .text          0x00000000        0x0 contiki-OrisenStamp.a(kbi_events.o)
 .data          0x00000000        0x0 contiki-OrisenStamp.a(kbi_events.o)
 .bss           0x00000000        0x0 contiki-OrisenStamp.a(kbi_events.o)
 .text.kbi_event_setHandler
                0x00000000        0x0 contiki-OrisenStamp.a(kbi_events.o)
 .text.kbi_event_clearHandler
                0x00000000        0x0 contiki-OrisenStamp.a(kbi_events.o)
 .text.kbi_event_happened
                0x00000000        0x0 contiki-OrisenStamp.a(kbi_events.o)
 .text          0x00000000        0x0 contiki-OrisenStamp.a(io-pins.o)
 .data          0x00000000        0x0 contiki-OrisenStamp.a(io-pins.o)
 .bss           0x00000000        0x0 contiki-OrisenStamp.a(io-pins.o)
 .text.ioPins_setValue
                0x00000000        0x0 contiki-OrisenStamp.a(io-pins.o)
 .rodata.ioPins_setValue
                0x00000000        0x0 contiki-OrisenStamp.a(io-pins.o)
 .text.ioPins_getBatt
                0x00000000        0x0 contiki-OrisenStamp.a(io-pins.o)
 .text.ioPins_getValue
                0x00000000        0x0 contiki-OrisenStamp.a(io-pins.o)
 .rodata.ioPins_getValue
                0x00000000        0x0 contiki-OrisenStamp.a(io-pins.o)
 .text          0x00000000        0x0 contiki-OrisenStamp.a(watchdog.o)
 .data          0x00000000        0x0 contiki-OrisenStamp.a(watchdog.o)
 .bss           0x00000000        0x0 contiki-OrisenStamp.a(watchdog.o)
 .text.watchdog_init
                0x00000000        0x0 contiki-OrisenStamp.a(watchdog.o)
 .text.watchdog_start
                0x00000000        0x0 contiki-OrisenStamp.a(watchdog.o)
 .text.watchdog_periodic
                0x00000000        0x0 contiki-OrisenStamp.a(watchdog.o)
 .text.watchdog_stop
                0x00000000        0x0 contiki-OrisenStamp.a(watchdog.o)
 .text          0x00000000        0x0 contiki-OrisenStamp.a(contiki-crm.o)
 .data          0x00000000        0x0 contiki-OrisenStamp.a(contiki-crm.o)
 .bss           0x00000000        0x0 contiki-OrisenStamp.a(contiki-crm.o)
 .text.sleep    0x00000000        0x0 contiki-OrisenStamp.a(contiki-crm.o)
 .text.enable_32khz_xtal
                0x00000000        0x0 contiki-OrisenStamp.a(contiki-crm.o)
 .bss.rtc_count.4040
                0x00000000        0x0 contiki-OrisenStamp.a(contiki-crm.o)
 .text          0x00000000        0x0 contiki-OrisenStamp.a(contiki-maca.o)
 .data          0x00000000        0x0 contiki-OrisenStamp.a(contiki-maca.o)
 .bss           0x00000000        0x0 contiki-OrisenStamp.a(contiki-maca.o)
 .text          0x00000000        0x0 contiki-OrisenStamp.a(contiki-misc.o)
 .data          0x00000000        0x0 contiki-OrisenStamp.a(contiki-misc.o)
 .bss           0x00000000        0x0 contiki-OrisenStamp.a(contiki-misc.o)
 .text.raise    0x00000000        0x0 contiki-OrisenStamp.a(contiki-misc.o)
 .text.srand    0x00000000        0x0 contiki-OrisenStamp.a(contiki-misc.o)
 .text._sbrk    0x00000000        0x0 contiki-OrisenStamp.a(contiki-misc.o)
 .bss.heap.5080
                0x00000000        0x0 contiki-OrisenStamp.a(contiki-misc.o)
 .text          0x00000000        0x0 contiki-OrisenStamp.a(leds.o)
 .data          0x00000000        0x0 contiki-OrisenStamp.a(leds.o)
 .bss           0x00000000        0x0 contiki-OrisenStamp.a(leds.o)
 .text.leds_invert
                0x00000000        0x0 contiki-OrisenStamp.a(leds.o)
 .text.leds_toggle
                0x00000000        0x0 contiki-OrisenStamp.a(leds.o)
 .text.leds_get
                0x00000000        0x0 contiki-OrisenStamp.a(leds.o)
 .text.leds_blink
                0x00000000        0x0 contiki-OrisenStamp.a(leds.o)
 .text          0x00000000        0x0 contiki-OrisenStamp.a(contiki-uart.o)
 .data          0x00000000        0x0 contiki-OrisenStamp.a(contiki-uart.o)
 .bss           0x00000000        0x0 contiki-OrisenStamp.a(contiki-uart.o)
 .text          0x00000000        0x0 contiki-OrisenStamp.a(dbg-printf.o)
 .data          0x00000000        0x0 contiki-OrisenStamp.a(dbg-printf.o)
 .bss           0x00000000        0x0 contiki-OrisenStamp.a(dbg-printf.o)
 .text          0x00000000        0x0 contiki-OrisenStamp.a(dbg-sprintf.o)
 .data          0x00000000        0x0 contiki-OrisenStamp.a(dbg-sprintf.o)
 .bss           0x00000000        0x0 contiki-OrisenStamp.a(dbg-sprintf.o)
 .text          0x00000000        0x0 contiki-OrisenStamp.a(strformat.o)
 .data          0x00000000        0x0 contiki-OrisenStamp.a(strformat.o)
 .bss           0x00000000        0x0 contiki-OrisenStamp.a(strformat.o)
 .text.format_str
                0x00000000        0x0 contiki-OrisenStamp.a(strformat.o)
 .text          0x00000000        0x0 contiki-OrisenStamp.a(adc.o)
 .data          0x00000000        0x0 contiki-OrisenStamp.a(adc.o)
 .bss           0x00000000        0x0 contiki-OrisenStamp.a(adc.o)
 .text.ADC_flush
                0x00000000        0x0 contiki-OrisenStamp.a(adc.o)
 .text.ADC_READ
                0x00000000        0x0 contiki-OrisenStamp.a(adc.o)
 .text.adc_service
                0x00000000        0x0 contiki-OrisenStamp.a(adc.o)
 .bss.adc_reading
                0x00000000        0x0 contiki-OrisenStamp.a(adc.o)
 .text          0x00000000        0x0 contiki-OrisenStamp.a(gpio.o)
 .data          0x00000000        0x0 contiki-OrisenStamp.a(gpio.o)
 .bss           0x00000000        0x0 contiki-OrisenStamp.a(gpio.o)
 .text.gpio_pad_dir
                0x00000000        0x0 contiki-OrisenStamp.a(gpio.o)
 .text.gpio_data
                0x00000000        0x0 contiki-OrisenStamp.a(gpio.o)
 .text.gpio_pad_pu_en
                0x00000000        0x0 contiki-OrisenStamp.a(gpio.o)
 .text.gpio_data_sel
                0x00000000        0x0 contiki-OrisenStamp.a(gpio.o)
 .text.gpio_pad_pu_sel
                0x00000000        0x0 contiki-OrisenStamp.a(gpio.o)
 .text.gpio_data_set
                0x00000000        0x0 contiki-OrisenStamp.a(gpio.o)
 .text.gpio_data_reset
                0x00000000        0x0 contiki-OrisenStamp.a(gpio.o)
 .text.gpio_pad_dir_set
                0x00000000        0x0 contiki-OrisenStamp.a(gpio.o)
 .text.gpio_pad_dir_reset
                0x00000000        0x0 contiki-OrisenStamp.a(gpio.o)
 .text          0x00000000        0x0 contiki-OrisenStamp.a(gpio-util.o)
 .data          0x00000000        0x0 contiki-OrisenStamp.a(gpio-util.o)
 .bss           0x00000000        0x0 contiki-OrisenStamp.a(gpio-util.o)
 .text.gpio_set
                0x00000000        0x0 contiki-OrisenStamp.a(gpio-util.o)
 .text.gpio_reset
                0x00000000        0x0 contiki-OrisenStamp.a(gpio-util.o)
 .text.gpio_read
                0x00000000        0x0 contiki-OrisenStamp.a(gpio-util.o)
 .text          0x00000000        0x0 contiki-OrisenStamp.a(i2c.o)
 .data          0x00000000        0x0 contiki-OrisenStamp.a(i2c.o)
 .bss           0x00000000        0x0 contiki-OrisenStamp.a(i2c.o)
 .text.i2c_disable
                0x00000000        0x0 contiki-OrisenStamp.a(i2c.o)
 .bss.i         0x00000000        0x0 contiki-OrisenStamp.a(i2c.o)
 .text          0x00000000        0x0 contiki-OrisenStamp.a(maca.o)
 .data          0x00000000        0x0 contiki-OrisenStamp.a(maca.o)
 .bss           0x00000000        0x0 contiki-OrisenStamp.a(maca.o)
 .text.bad_packet_bounds
                0x00000000        0x0 contiki-OrisenStamp.a(maca.o)
 .text.count_packets
                0x00000000        0x0 contiki-OrisenStamp.a(maca.o)
 .text.bound_check
                0x00000000        0x0 contiki-OrisenStamp.a(maca.o)
 .text.maca_off
                0x00000000        0x0 contiki-OrisenStamp.a(maca.o)
 .text.maca_on  0x00000000        0x0 contiki-OrisenStamp.a(maca.o)
 .text.set_demodulator_type
                0x00000000        0x0 contiki-OrisenStamp.a(maca.o)
 .text.Print_Packets
                0x00000000        0x0 contiki-OrisenStamp.a(maca.o)
 .rodata.str1.1
                0x00000000        0x0 contiki-OrisenStamp.a(maca.o)
 .text          0x00000000        0x0 contiki-OrisenStamp.a(nvm.o)
 .data          0x00000000        0x0 contiki-OrisenStamp.a(nvm.o)
 .bss           0x00000000        0x0 contiki-OrisenStamp.a(nvm.o)
 .data.nvm_erase
                0x00000000        0x0 contiki-OrisenStamp.a(nvm.o)
 .text          0x00000000        0x0 contiki-OrisenStamp.a(uart1.o)
 .data          0x00000000        0x0 contiki-OrisenStamp.a(uart1.o)
 .bss           0x00000000        0x0 contiki-OrisenStamp.a(uart1.o)
 .text          0x00000000        0x0 contiki-OrisenStamp.a(uart2.o)
 .data          0x00000000        0x0 contiki-OrisenStamp.a(uart2.o)
 .bss           0x00000000        0x0 contiki-OrisenStamp.a(uart2.o)
 .text.uart2_getc
                0x00000000        0x0 contiki-OrisenStamp.a(uart2.o)
 .bss.u2_rx_buf
                0x00000000        0x0 contiki-OrisenStamp.a(uart2.o)
 .text          0x00000000        0x0 contiki-OrisenStamp.a(default_lowleve)
 .data          0x00000000        0x0 contiki-OrisenStamp.a(default_lowleve)
 .bss           0x00000000        0x0 contiki-OrisenStamp.a(default_lowleve)
 .text          0x00000000        0x0 contiki-OrisenStamp.a(isr.o)
 .data          0x00000000        0x0 contiki-OrisenStamp.a(isr.o)
 .bss           0x00000000        0x0 contiki-OrisenStamp.a(isr.o)
 .text.irq_register_timer_handler
                0x00000000        0x0 contiki-OrisenStamp.a(isr.o)
 .text          0x00000000        0x0 contiki-OrisenStamp.a(unicast.o)
 .data          0x00000000        0x0 contiki-OrisenStamp.a(unicast.o)
 .bss           0x00000000        0x0 contiki-OrisenStamp.a(unicast.o)
 .text          0x00000000        0x0 contiki-OrisenStamp.a(ipolite.o)
 .data          0x00000000        0x0 contiki-OrisenStamp.a(ipolite.o)
 .bss           0x00000000        0x0 contiki-OrisenStamp.a(ipolite.o)
 .text.ipolite_cancel
                0x00000000        0x0 contiki-OrisenStamp.a(ipolite.o)
 .text          0x00000000        0x0 contiki-OrisenStamp.a(netflood.o)
 .data          0x00000000        0x0 contiki-OrisenStamp.a(netflood.o)
 .bss           0x00000000        0x0 contiki-OrisenStamp.a(netflood.o)
 .text.netflood_cancel
                0x00000000        0x0 contiki-OrisenStamp.a(netflood.o)
 .text          0x00000000        0x0 contiki-OrisenStamp.a(multihop.o)
 .data          0x00000000        0x0 contiki-OrisenStamp.a(multihop.o)
 .bss           0x00000000        0x0 contiki-OrisenStamp.a(multihop.o)
 .text          0x00000000        0x0 contiki-OrisenStamp.a(trickle.o)
 .data          0x00000000        0x0 contiki-OrisenStamp.a(trickle.o)
 .bss           0x00000000        0x0 contiki-OrisenStamp.a(trickle.o)
 .text          0x00000000        0x0 contiki-OrisenStamp.a(frame802154.o)
 .data          0x00000000        0x0 contiki-OrisenStamp.a(frame802154.o)
 .bss           0x00000000        0x0 contiki-OrisenStamp.a(frame802154.o)
 .text          0x00000000        0x0 contiki-OrisenStamp.a(timer.o)
 .data          0x00000000        0x0 contiki-OrisenStamp.a(timer.o)
 .bss           0x00000000        0x0 contiki-OrisenStamp.a(timer.o)
 .text.timer_remaining
                0x00000000        0x0 contiki-OrisenStamp.a(timer.o)
 .text.timer_restart
                0x00000000        0x0 contiki-OrisenStamp.a(timer.o)
 .text          0x00000000        0x0 contiki-OrisenStamp.a(debug-uart.o)
 .data          0x00000000        0x0 contiki-OrisenStamp.a(debug-uart.o)
 .bss           0x00000000        0x0 contiki-OrisenStamp.a(debug-uart.o)
 .text          0x00000000        0x0 contiki-OrisenStamp.a(leds-arch.o)
 .data          0x00000000        0x0 contiki-OrisenStamp.a(leds-arch.o)
 .bss           0x00000000        0x0 contiki-OrisenStamp.a(leds-arch.o)
 .text.leds_arch_get
                0x00000000        0x0 contiki-OrisenStamp.a(leds-arch.o)
 .data          0x00000000        0x0 /home/user/CodeSourcery/Sourcery_G++_Lite/bin/../lib/gcc/arm-none-eabi/4.3.2/libgcc.a(_udivsi3.o)
 .bss           0x00000000        0x0 /home/user/CodeSourcery/Sourcery_G++_Lite/bin/../lib/gcc/arm-none-eabi/4.3.2/libgcc.a(_udivsi3.o)
 .data          0x00000000        0x0 /home/user/CodeSourcery/Sourcery_G++_Lite/bin/../lib/gcc/arm-none-eabi/4.3.2/libgcc.a(_divsi3.o)
 .bss           0x00000000        0x0 /home/user/CodeSourcery/Sourcery_G++_Lite/bin/../lib/gcc/arm-none-eabi/4.3.2/libgcc.a(_divsi3.o)
 .data          0x00000000        0x0 /home/user/CodeSourcery/Sourcery_G++_Lite/bin/../lib/gcc/arm-none-eabi/4.3.2/libgcc.a(_dvmd_tls.o)
 .bss           0x00000000        0x0 /home/user/CodeSourcery/Sourcery_G++_Lite/bin/../lib/gcc/arm-none-eabi/4.3.2/libgcc.a(_dvmd_tls.o)
 .data          0x00000000        0x0 /home/user/CodeSourcery/Sourcery_G++_Lite/bin/../lib/gcc/arm-none-eabi/4.3.2/libgcc.a(_aeabi_uldivmod.o)
 .bss           0x00000000        0x0 /home/user/CodeSourcery/Sourcery_G++_Lite/bin/../lib/gcc/arm-none-eabi/4.3.2/libgcc.a(_aeabi_uldivmod.o)
 .data          0x00000000        0x0 /home/user/CodeSourcery/Sourcery_G++_Lite/bin/../lib/gcc/arm-none-eabi/4.3.2/libgcc.a(bpabi.o)
 .bss           0x00000000        0x0 /home/user/CodeSourcery/Sourcery_G++_Lite/bin/../lib/gcc/arm-none-eabi/4.3.2/libgcc.a(bpabi.o)
 .data          0x00000000        0x0 /home/user/CodeSourcery/Sourcery_G++_Lite/bin/../lib/gcc/arm-none-eabi/4.3.2/libgcc.a(_divdi3.o)
 .bss           0x00000000        0x0 /home/user/CodeSourcery/Sourcery_G++_Lite/bin/../lib/gcc/arm-none-eabi/4.3.2/libgcc.a(_divdi3.o)
 .ARM.extab     0x00000000        0x0 /home/user/CodeSourcery/Sourcery_G++_Lite/bin/../lib/gcc/arm-none-eabi/4.3.2/libgcc.a(_divdi3.o)
 .data          0x00000000        0x0 /home/user/CodeSourcery/Sourcery_G++_Lite/bin/../lib/gcc/arm-none-eabi/4.3.2/libgcc.a(_udivdi3.o)
 .bss           0x00000000        0x0 /home/user/CodeSourcery/Sourcery_G++_Lite/bin/../lib/gcc/arm-none-eabi/4.3.2/libgcc.a(_udivdi3.o)
 .ARM.extab     0x00000000        0x0 /home/user/CodeSourcery/Sourcery_G++_Lite/bin/../lib/gcc/arm-none-eabi/4.3.2/libgcc.a(_udivdi3.o)
 .text          0x00000000        0x0 /home/user/CodeSourcery/Sourcery_G++_Lite/bin/../lib/gcc/arm-none-eabi/4.3.2/libgcc.a(_clz.o)
 .data          0x00000000        0x0 /home/user/CodeSourcery/Sourcery_G++_Lite/bin/../lib/gcc/arm-none-eabi/4.3.2/libgcc.a(_clz.o)
 .bss           0x00000000        0x0 /home/user/CodeSourcery/Sourcery_G++_Lite/bin/../lib/gcc/arm-none-eabi/4.3.2/libgcc.a(_clz.o)
 .text          0x00000000        0x0 /home/user/CodeSourcery/Sourcery_G++_Lite/bin/../lib/gcc/arm-none-eabi/4.3.2/../../../../arm-none-eabi/lib/libc.a(lib_a-ctype_.o)
 .bss           0x00000000        0x0 /home/user/CodeSourcery/Sourcery_G++_Lite/bin/../lib/gcc/arm-none-eabi/4.3.2/../../../../arm-none-eabi/lib/libc.a(lib_a-ctype_.o)
 .data          0x00000000        0x0 /home/user/CodeSourcery/Sourcery_G++_Lite/bin/../lib/gcc/arm-none-eabi/4.3.2/../../../../arm-none-eabi/lib/libc.a(lib_a-memcmp.o)
 .bss           0x00000000        0x0 /home/user/CodeSourcery/Sourcery_G++_Lite/bin/../lib/gcc/arm-none-eabi/4.3.2/../../../../arm-none-eabi/lib/libc.a(lib_a-memcmp.o)
 .data          0x00000000        0x0 /home/user/CodeSourcery/Sourcery_G++_Lite/bin/../lib/gcc/arm-none-eabi/4.3.2/../../../../arm-none-eabi/lib/libc.a(lib_a-memcpy.o)
 .bss           0x00000000        0x0 /home/user/CodeSourcery/Sourcery_G++_Lite/bin/../lib/gcc/arm-none-eabi/4.3.2/../../../../arm-none-eabi/lib/libc.a(lib_a-memcpy.o)
 .data          0x00000000        0x0 /home/user/CodeSourcery/Sourcery_G++_Lite/bin/../lib/gcc/arm-none-eabi/4.3.2/../../../../arm-none-eabi/lib/libc.a(lib_a-memset.o)
 .bss           0x00000000        0x0 /home/user/CodeSourcery/Sourcery_G++_Lite/bin/../lib/gcc/arm-none-eabi/4.3.2/../../../../arm-none-eabi/lib/libc.a(lib_a-memset.o)
 .data          0x00000000        0x0 /home/user/CodeSourcery/Sourcery_G++_Lite/bin/../lib/gcc/arm-none-eabi/4.3.2/../../../../arm-none-eabi/lib/libc.a(lib_a-strchr.o)
 .bss           0x00000000        0x0 /home/user/CodeSourcery/Sourcery_G++_Lite/bin/../lib/gcc/arm-none-eabi/4.3.2/../../../../arm-none-eabi/lib/libc.a(lib_a-strchr.o)
 .data          0x00000000        0x0 /home/user/CodeSourcery/Sourcery_G++_Lite/bin/../lib/gcc/arm-none-eabi/4.3.2/../../../../arm-none-eabi/lib/libc.a(lib_a-strcmp.o)
 .bss           0x00000000        0x0 /home/user/CodeSourcery/Sourcery_G++_Lite/bin/../lib/gcc/arm-none-eabi/4.3.2/../../../../arm-none-eabi/lib/libc.a(lib_a-strcmp.o)
 .data          0x00000000        0x0 /home/user/CodeSourcery/Sourcery_G++_Lite/bin/../lib/gcc/arm-none-eabi/4.3.2/../../../../arm-none-eabi/lib/libc.a(lib_a-strlen.o)
 .bss           0x00000000        0x0 /home/user/CodeSourcery/Sourcery_G++_Lite/bin/../lib/gcc/arm-none-eabi/4.3.2/../../../../arm-none-eabi/lib/libc.a(lib_a-strlen.o)
 .data          0x00000000        0x0 /home/user/CodeSourcery/Sourcery_G++_Lite/bin/../lib/gcc/arm-none-eabi/4.3.2/../../../../arm-none-eabi/lib/libc.a(lib_a-strncmp.o)
 .bss           0x00000000        0x0 /home/user/CodeSourcery/Sourcery_G++_Lite/bin/../lib/gcc/arm-none-eabi/4.3.2/../../../../arm-none-eabi/lib/libc.a(lib_a-strncmp.o)
 .data          0x00000000        0x0 /home/user/CodeSourcery/Sourcery_G++_Lite/bin/../lib/gcc/arm-none-eabi/4.3.2/../../../../arm-none-eabi/lib/libc.a(lib_a-strncpy.o)
 .bss           0x00000000        0x0 /home/user/CodeSourcery/Sourcery_G++_Lite/bin/../lib/gcc/arm-none-eabi/4.3.2/../../../../arm-none-eabi/lib/libc.a(lib_a-strncpy.o)
 .data          0x00000000        0x0 /home/user/CodeSourcery/Sourcery_G++_Lite/bin/../lib/gcc/arm-none-eabi/4.3.2/../../../../arm-none-eabi/lib/libc.a(lib_a-strstr.o)
 .bss           0x00000000        0x0 /home/user/CodeSourcery/Sourcery_G++_Lite/bin/../lib/gcc/arm-none-eabi/4.3.2/../../../../arm-none-eabi/lib/libc.a(lib_a-strstr.o)
 .data          0x00000000        0x0 /home/user/CodeSourcery/Sourcery_G++_Lite/bin/../lib/gcc/arm-none-eabi/4.3.2/../../../../arm-none-eabi/lib/libc.a(lib_a-memchr.o)
 .bss           0x00000000        0x0 /home/user/CodeSourcery/Sourcery_G++_Lite/bin/../lib/gcc/arm-none-eabi/4.3.2/../../../../arm-none-eabi/lib/libc.a(lib_a-memchr.o)

Memory Configuration

Name             Origin             Length             Attributes
ram              0x00400000         0x00018000         xrw
*default*        0x00000000         0xffffffff

Linker script and memory map

LOAD boot.co
LOAD obj_OrisenStamp/commands.o
LOAD obj_OrisenStamp/uart2_handler.o
LOAD obj_OrisenStamp/mesh_my.o
LOAD obj_OrisenStamp/rudolph1_my.o
LOAD obj_OrisenStamp/settings_read.o
LOAD obj_OrisenStamp/uarts_test.o
LOAD obj_OrisenStamp/contiki-stamp-main.o
LOAD obj_OrisenStamp/start.o
LOAD contiki-OrisenStamp.a
LOAD contiki-OrisenStamp.a
START GROUP
LOAD /home/user/CodeSourcery/Sourcery_G++_Lite/bin/../lib/gcc/arm-none-eabi/4.3.2/libgcc.a
LOAD /home/user/CodeSourcery/Sourcery_G++_Lite/bin/../lib/gcc/arm-none-eabi/4.3.2/../../../../arm-none-eabi/lib/libc.a
END GROUP
                0x00000400                SYS_STACK_SIZE = 0x400
                0x00000100                IRQ_STACK_SIZE = 0x100
                0x00000100                FIQ_STACK_SIZE = 0x100
                0x00000100                SVC_STACK_SIZE = 0x100
                0x00000010                ABT_STACK_SIZE = 0x10
                0x00000010                UND_STACK_SIZE = 0x10
                0x00001000                HEAP_SIZE = 0x1000
                0x00400000                PROVIDE (__executable_start, 0x400000)
                0x00400000                . = 0x400000

.text           0x00400000     0xf014
 *(.start)
 .start         0x00400000      0x8b4 obj_OrisenStamp/start.o
                0x00400890                _bss_start
                0x00400894                _bss_end
                0x00400000                _start
 *(.irq)
 .irq           0x004008b4      0x214 contiki-OrisenStamp.a(isr.o)
                0x004008b4                irq
 *(.text .stub .text.* .gnu.linkonce.t.*)
 .text.process_thread_boot_process
                0x00400ac8      0x140 boot.co
 .text.process_thread_uart2_log_disable_process
                0x00400c08       0x24 obj_OrisenStamp/commands.o
 .text.process_thread_uart2_log_enable_process
                0x00400c2c       0x24 obj_OrisenStamp/commands.o
 .text.process_thread_uart2_shell_disable_process
                0x00400c50       0x24 obj_OrisenStamp/commands.o
 .text.process_thread_uart2_shell_enable_process
                0x00400c74       0x24 obj_OrisenStamp/commands.o
 .text.process_thread_uart1_shell_disable_process
                0x00400c98       0x38 obj_OrisenStamp/commands.o
 .text.process_thread_uart1_shell_enable_process
                0x00400cd0       0x3c obj_OrisenStamp/commands.o
 .text.process_thread_testcmd_process
                0x00400d0c       0x2c obj_OrisenStamp/commands.o
 .text.process_thread_rudolph1_set_file_process
                0x00400d38       0x3c obj_OrisenStamp/commands.o
 .text.process_thread_mesh_send_process
                0x00400d74      0x130 obj_OrisenStamp/commands.o
 .text.process_thread_uart2_send
                0x00400ea4       0x44 obj_OrisenStamp/commands.o
 .text.process_thread_rudolph1_send_process
                0x00400ee8      0x190 obj_OrisenStamp/commands.o
 .text.process_thread_rudolph1_end_process
                0x00401078       0x34 obj_OrisenStamp/commands.o
 .text.process_thread_rudolph1_start_process
                0x004010ac       0x34 obj_OrisenStamp/commands.o
 .text.process_thread_mesh_end_process
                0x004010e0       0x34 obj_OrisenStamp/commands.o
 .text.process_thread_mesh_start_process
                0x00401114       0x34 obj_OrisenStamp/commands.o
 .text.process_thread_rimeaddr_change_process
                0x00401148       0x50 obj_OrisenStamp/commands.o
 .text.process_thread_ble_process
                0x00401198       0x78 obj_OrisenStamp/commands.o
 .text.process_thread_lcd_process
                0x00401210      0x10c obj_OrisenStamp/commands.o
 .text.process_thread_led_process
                0x0040131c       0xb0 obj_OrisenStamp/commands.o
 .text.commands_init
                0x004013cc       0xe4 obj_OrisenStamp/commands.o
                0x004013cc                commands_init
                0x004013d4                .real_start_ofcommands_init
 .text.process_thread_uart2_serial_input_process
                0x004014b0       0x54 obj_OrisenStamp/uart2_handler.o
 .text.process_thread_uart2_log_process
                0x00401504      0x14c obj_OrisenStamp/uart2_handler.o
 .text.process_thread_uart2_process
                0x00401650       0xa0 obj_OrisenStamp/uart2_handler.o
 .text.uart2_serial_input_exit
                0x004016f0       0x34 obj_OrisenStamp/uart2_handler.o
                0x004016f8                .real_start_ofuart2_serial_input_exit
                0x004016f0                uart2_serial_input_exit
 .text.uart2_log_exit
                0x00401724       0x34 obj_OrisenStamp/uart2_handler.o
                0x00401724                uart2_log_exit
                0x0040172c                .real_start_ofuart2_log_exit
 .text.uart2_serial_input_init
                0x00401758       0x38 obj_OrisenStamp/uart2_handler.o
                0x00401760                .real_start_ofuart2_serial_input_init
                0x00401758                uart2_serial_input_init
 .text.uart2_log_init
                0x00401790       0x38 obj_OrisenStamp/uart2_handler.o
                0x00401798                .real_start_ofuart2_log_init
                0x00401790                uart2_log_init
 .text.uart2_handler_init
                0x004017c8       0x28 obj_OrisenStamp/uart2_handler.o
                0x004017d0                .real_start_ofuart2_handler_init
                0x004017c8                uart2_handler_init
 .text.mesh_set_dest
                0x004017f0       0x2c obj_OrisenStamp/mesh_my.o
                0x004017f8                .real_start_ofmesh_set_dest
                0x004017f0                mesh_set_dest
 .text.timedout
                0x0040181c       0x1c obj_OrisenStamp/mesh_my.o
 .text.process_thread_mesh_process
                0x00401838      0x150 obj_OrisenStamp/mesh_my.o
 .text.sent     0x00401988       0x34 obj_OrisenStamp/mesh_my.o
 .text.recv     0x004019bc       0xd4 obj_OrisenStamp/mesh_my.o
 .text.mesh_exit
                0x00401a90       0x24 obj_OrisenStamp/mesh_my.o
                0x00401a90                mesh_exit
                0x00401a98                .real_start_ofmesh_exit
 .text.mesh_init
                0x00401ab4       0x28 obj_OrisenStamp/mesh_my.o
                0x00401abc                .real_start_ofmesh_init
                0x00401ab4                mesh_init
 .text.rudolph1_set_filename
                0x00401adc       0x1c obj_OrisenStamp/rudolph1_my.o
                0x00401ae4                .real_start_ofrudolph1_set_filename
                0x00401adc                rudolph1_set_filename
 .text.process_thread_rudolph1_process
                0x00401af8       0xe4 obj_OrisenStamp/rudolph1_my.o
 .text.read_chunk
                0x00401bdc      0x10c obj_OrisenStamp/rudolph1_my.o
 .text.write_chunk
                0x00401ce8      0x178 obj_OrisenStamp/rudolph1_my.o
 .text.rudolph1_exit
                0x00401e60       0x24 obj_OrisenStamp/rudolph1_my.o
                0x00401e68                .real_start_ofrudolph1_exit
                0x00401e60                rudolph1_exit
 .text.rudolph1_init
                0x00401e84       0x28 obj_OrisenStamp/rudolph1_my.o
                0x00401e8c                .real_start_ofrudolph1_init
                0x00401e84                rudolph1_init
 .text.process_thread_settings_load_process
                0x00401eac      0x1bc obj_OrisenStamp/settings_read.o
 .text.load_settings
                0x00402068       0x28 obj_OrisenStamp/settings_read.o
                0x00402070                .real_start_ofload_settings
                0x00402068                load_settings
 .text.process_thread_uarts_test
                0x00402090       0xb4 obj_OrisenStamp/uarts_test.o
 .text.uarts_test_init
                0x00402144       0x28 obj_OrisenStamp/uarts_test.o
                0x00402144                uarts_test_init
                0x0040214c                .real_start_ofuarts_test_init
 .text.sd_card_switch_init
                0x0040216c       0x44 obj_OrisenStamp/contiki-stamp-main.o
                0x0040216c                sd_card_switch_init
                0x00402174                .real_start_ofsd_card_switch_init
 .text.kbi4_init
                0x004021b0       0x64 obj_OrisenStamp/contiki-stamp-main.o
                0x004021b8                .real_start_ofkbi4_init
                0x004021b0                kbi4_init
 .text.kbi5_init
                0x00402214       0x68 obj_OrisenStamp/contiki-stamp-main.o
                0x00402214                kbi5_init
                0x0040221c                .real_start_ofkbi5_init
 .text.print_welcome
                0x0040227c       0x40 obj_OrisenStamp/contiki-stamp-main.o
                0x0040227c                print_welcome
                0x00402284                .real_start_ofprint_welcome
 .text.set_rimeaddr
                0x004022bc      0x104 obj_OrisenStamp/contiki-stamp-main.o
                0x004022bc                set_rimeaddr
                0x004022c4                .real_start_ofset_rimeaddr
 .text.stamp_init
                0x004023c0       0xd8 obj_OrisenStamp/contiki-stamp-main.o
                0x004023c8                .real_start_ofstamp_init
                0x004023c0                stamp_init
 .text.init_lowlevel
                0x00402498       0x60 obj_OrisenStamp/contiki-stamp-main.o
                0x00402498                init_lowlevel
                0x004024a0                .real_start_ofinit_lowlevel
 .text.main     0x004024f8      0x1e4 obj_OrisenStamp/contiki-stamp-main.o
                0x00402500                .real_start_ofmain
                0x004024f8                main
 .text.rimeaddr_copy
                0x004026dc       0x14 contiki-OrisenStamp.a(rimeaddr.o)
                0x004026dc                rimeaddr_copy
                0x004026e4                .real_start_ofrimeaddr_copy
 .text.rimeaddr_cmp
                0x004026f0       0x2c contiki-OrisenStamp.a(rimeaddr.o)
                0x004026f8                .real_start_ofrimeaddr_cmp
                0x004026f0                rimeaddr_cmp
 .text.rimeaddr_set_node_addr
                0x0040271c       0x28 contiki-OrisenStamp.a(rimeaddr.o)
                0x0040271c                rimeaddr_set_node_addr
                0x00402724                .real_start_ofrimeaddr_set_node_addr
 .text.input    0x00402744       0x60 contiki-OrisenStamp.a(rime.o)
 .text.init     0x004027a4       0x50 contiki-OrisenStamp.a(rime.o)
 .text.rime_output
                0x004027f4       0x50 contiki-OrisenStamp.a(rime.o)
                0x004027fc                .real_start_ofrime_output
                0x004027f4                rime_output
 .text.packet_sent
                0x00402844       0x50 contiki-OrisenStamp.a(rime.o)
 .text.announcement_register_observer_callback
                0x00402894       0x14 contiki-OrisenStamp.a(announcement.o)
                0x00402894                announcement_register_observer_callback
                0x0040289c                .real_start_ofannouncement_register_observer_callback
 .text.announcement_list
                0x004028a8       0x24 contiki-OrisenStamp.a(announcement.o)
                0x004028b0                .real_start_ofannouncement_list
                0x004028a8                announcement_list
 .text.announcement_heard
                0x004028cc       0x50 contiki-OrisenStamp.a(announcement.o)
                0x004028cc                announcement_heard
                0x004028d4                .real_start_ofannouncement_heard
 .text.announcement_init
                0x0040291c       0x24 contiki-OrisenStamp.a(announcement.o)
                0x00402924                .real_start_ofannouncement_init
                0x0040291c                announcement_init
 .text.adv_packet_sent
                0x00402940        0x4 contiki-OrisenStamp.a(broadcast-annou)
 .text.broadcast_announcement_init
                0x00402944       0x54 contiki-OrisenStamp.a(broadcast-annou)
                0x0040294c                .real_start_ofbroadcast_announcement_init
                0x00402944                broadcast_announcement_init
 .text.adv_packet_received
                0x00402998       0x7c contiki-OrisenStamp.a(broadcast-annou)
 .text.set_timers
                0x00402a14       0x54 contiki-OrisenStamp.a(broadcast-annou)
 .text.new_announcement
                0x00402a68       0x28 contiki-OrisenStamp.a(broadcast-annou)
 .text.send_timer
                0x00402a90       0x2c contiki-OrisenStamp.a(broadcast-annou)
 .text.send_adv
                0x00402abc       0x8c contiki-OrisenStamp.a(broadcast-annou)
 .text.sent_by_abc
                0x00402b48       0x18 contiki-OrisenStamp.a(broadcast.o)
 .text.broadcast_send
                0x00402b60       0x38 contiki-OrisenStamp.a(broadcast.o)
                0x00402b60                broadcast_send
                0x00402b68                .real_start_ofbroadcast_send
 .text.recv_from_abc
                0x00402b98       0x34 contiki-OrisenStamp.a(broadcast.o)
 .text.broadcast_close
                0x00402bcc       0x20 contiki-OrisenStamp.a(broadcast.o)
                0x00402bcc                broadcast_close
                0x00402bd4                .real_start_ofbroadcast_close
 .text.broadcast_open
                0x00402bec       0x40 contiki-OrisenStamp.a(broadcast.o)
                0x00402bec                broadcast_open
                0x00402bf4                .real_start_ofbroadcast_open
 .text.abc_input
                0x00402c2c       0x1c contiki-OrisenStamp.a(abc.o)
                0x00402c2c                abc_input
                0x00402c34                .real_start_ofabc_input
 .text.abc_sent
                0x00402c48       0x20 contiki-OrisenStamp.a(abc.o)
                0x00402c48                abc_sent
                0x00402c50                .real_start_ofabc_sent
 .text.abc_send
                0x00402c68       0x20 contiki-OrisenStamp.a(abc.o)
                0x00402c68                abc_send
                0x00402c70                .real_start_ofabc_send
 .text.abc_close
                0x00402c88       0x20 contiki-OrisenStamp.a(abc.o)
                0x00402c90                .real_start_ofabc_close
                0x00402c88                abc_close
 .text.abc_open
                0x00402ca8       0x38 contiki-OrisenStamp.a(abc.o)
                0x00402ca8                abc_open
                0x00402cb0                .real_start_ofabc_open
 .text.mesh_send
                0x00402ce0       0x34 contiki-OrisenStamp.a(mesh.o)
                0x00402ce8                .real_start_ofmesh_send
                0x00402ce0                mesh_send
 .text.mesh_close
                0x00402d14       0x30 contiki-OrisenStamp.a(mesh.o)
                0x00402d1c                .real_start_ofmesh_close
                0x00402d14                mesh_close
 .text.mesh_open
                0x00402d44       0x5c contiki-OrisenStamp.a(mesh.o)
                0x00402d4c                .real_start_ofmesh_open
                0x00402d44                mesh_open
 .text.route_timed_out
                0x00402da0       0x3c contiki-OrisenStamp.a(mesh.o)
 .text.found_route
                0x00402ddc       0x7c contiki-OrisenStamp.a(mesh.o)
 .text.data_packet_forward
                0x00402e58       0x7c contiki-OrisenStamp.a(mesh.o)
 .text.data_packet_received
                0x00402ed4       0x44 contiki-OrisenStamp.a(mesh.o)
 .text.route_refresh
                0x00402f18       0x18 contiki-OrisenStamp.a(route.o)
                0x00402f18                route_refresh
                0x00402f20                .real_start_ofroute_refresh
 .text.route_lookup
                0x00402f30       0x68 contiki-OrisenStamp.a(route.o)
                0x00402f38                .real_start_ofroute_lookup
                0x00402f30                route_lookup
 .text.route_add
                0x00402f98       0xb0 contiki-OrisenStamp.a(route.o)
                0x00402f98                route_add
                0x00402fa0                .real_start_ofroute_add
 .text.route_init
                0x00403048       0x50 contiki-OrisenStamp.a(route.o)
                0x00403048                route_init
                0x00403050                .real_start_ofroute_init
 .text.periodic
                0x00403098       0x7c contiki-OrisenStamp.a(route.o)
 .text.timeout_handler
                0x00403114       0x28 contiki-OrisenStamp.a(route-discovery)
 .text.route_discovery_discover
                0x0040313c       0xb0 contiki-OrisenStamp.a(route-discovery)
                0x00403144                .real_start_ofroute_discovery_discover
                0x0040313c                route_discovery_discover
 .text.route_discovery_close
                0x004031ec       0x3c contiki-OrisenStamp.a(route-discovery)
                0x004031f4                .real_start_ofroute_discovery_close
                0x004031ec                route_discovery_close
 .text.route_discovery_open
                0x00403228       0x4c contiki-OrisenStamp.a(route-discovery)
                0x00403228                route_discovery_open
                0x00403230                .real_start_ofroute_discovery_open
 .text.insert_route
                0x00403274       0x18 contiki-OrisenStamp.a(route-discovery)
 .text.rrep_packet_received
                0x0040328c       0xc0 contiki-OrisenStamp.a(route-discovery)
 .text.rreq_packet_received
                0x0040334c       0xfc contiki-OrisenStamp.a(route-discovery)
 .text.write_data
                0x00403448       0x54 contiki-OrisenStamp.a(rudolph1.o)
 .text.sent_ipolite
                0x0040349c        0x4 contiki-OrisenStamp.a(rudolph1.o)
 .text.dropped_ipolite
                0x004034a0        0x4 contiki-OrisenStamp.a(rudolph1.o)
 .text.format_data
                0x004034a4       0x64 contiki-OrisenStamp.a(rudolph1.o)
 .text.rudolph1_send
                0x00403508       0x6c contiki-OrisenStamp.a(rudolph1.o)
                0x00403510                .real_start_ofrudolph1_send
                0x00403508                rudolph1_send
 .text.send_next_packet
                0x00403574       0x84 contiki-OrisenStamp.a(rudolph1.o)
 .text.rudolph1_close
                0x004035f8       0x30 contiki-OrisenStamp.a(rudolph1.o)
                0x00403600                .real_start_ofrudolph1_close
                0x004035f8                rudolph1_close
 .text.rudolph1_open
                0x00403628       0x60 contiki-OrisenStamp.a(rudolph1.o)
                0x00403630                .real_start_ofrudolph1_open
                0x00403628                rudolph1_open
 .text.send_nack
                0x00403688       0x54 contiki-OrisenStamp.a(rudolph1.o)
 .text.handle_data
                0x004036dc       0xac contiki-OrisenStamp.a(rudolph1.o)
 .text.recv_ipolite
                0x00403788       0x8c contiki-OrisenStamp.a(rudolph1.o)
 .text.recv_trickle
                0x00403814       0x2c contiki-OrisenStamp.a(rudolph1.o)
 .text.packetbuf_set_attr
                0x00403840       0x10 contiki-OrisenStamp.a(chameleon.o)
 .text.chameleon_parse
                0x00403850       0x38 contiki-OrisenStamp.a(chameleon.o)
                0x00403850                chameleon_parse
                0x00403858                .real_start_ofchameleon_parse
 .text.chameleon_create
                0x00403888       0x38 contiki-OrisenStamp.a(chameleon.o)
                0x00403888                chameleon_create
                0x00403890                .real_start_ofchameleon_create
 .text.chameleon_hdrsize
                0x004038c0       0x20 contiki-OrisenStamp.a(chameleon.o)
                0x004038c0                chameleon_hdrsize
                0x004038c8                .real_start_ofchameleon_hdrsize
 .text.chameleon_init
                0x004038e0       0x20 contiki-OrisenStamp.a(chameleon.o)
                0x004038e0                chameleon_init
                0x004038e8                .real_start_ofchameleon_init
 .text.channel_lookup
                0x00403900       0x38 contiki-OrisenStamp.a(channel.o)
                0x00403900                channel_lookup
                0x00403908                .real_start_ofchannel_lookup
 .text.channel_close
                0x00403938       0x28 contiki-OrisenStamp.a(channel.o)
                0x00403940                .real_start_ofchannel_close
                0x00403938                channel_close
 .text.channel_open
                0x00403960       0x2c contiki-OrisenStamp.a(channel.o)
                0x00403960                channel_open
                0x00403968                .real_start_ofchannel_open
 .text.channel_set_attributes
                0x0040398c       0x38 contiki-OrisenStamp.a(channel.o)
                0x0040398c                channel_set_attributes
                0x00403994                .real_start_ofchannel_set_attributes
 .text.channel_init
                0x004039c4       0x24 contiki-OrisenStamp.a(channel.o)
                0x004039cc                .real_start_ofchannel_init
                0x004039c4                channel_init
 .text.get_bits_in_byte
                0x004039e8       0x2c contiki-OrisenStamp.a(chameleon-bitop)
                0x004039e8                get_bits_in_byte
                0x004039f0                .real_start_ofget_bits_in_byte
 .text.get_bits
                0x00403a14       0x9c contiki-OrisenStamp.a(chameleon-bitop)
                0x00403a1c                .real_start_ofget_bits
                0x00403a14                get_bits
 .text.header_size
                0x00403ab0       0x18 contiki-OrisenStamp.a(chameleon-bitop)
 .text.set_bits_in_byte
                0x00403ac8       0x2c contiki-OrisenStamp.a(chameleon-bitop)
                0x00403ad0                .real_start_ofset_bits_in_byte
                0x00403ac8                set_bits_in_byte
 .text.set_bits
                0x00403af4       0xa8 contiki-OrisenStamp.a(chameleon-bitop)
                0x00403af4                set_bits
                0x00403afc                .real_start_ofset_bits
 .text.pack_header
                0x00403b9c       0xb8 contiki-OrisenStamp.a(chameleon-bitop)
 .text.unpack_header
                0x00403c54       0xec contiki-OrisenStamp.a(chameleon-bitop)
 .text.packetbuf_addr
                0x00403d40       0x10 contiki-OrisenStamp.a(nullrdc.o)
 .text.on       0x00403d50       0x18 contiki-OrisenStamp.a(nullrdc.o)
 .text.off      0x00403d68       0x20 contiki-OrisenStamp.a(nullrdc.o)
 .text.channel_check_interval
                0x00403d88        0x4 contiki-OrisenStamp.a(nullrdc.o)
 .text.init     0x00403d8c       0x18 contiki-OrisenStamp.a(nullrdc.o)
 .text.packet_input
                0x00403da4       0x60 contiki-OrisenStamp.a(nullrdc.o)
 .text.send_packet
                0x00403e04       0x90 contiki-OrisenStamp.a(nullrdc.o)
 .text.send_list
                0x00403e94       0x30 contiki-OrisenStamp.a(nullrdc.o)
 .text.mac_call_sent_callback
                0x00403ec4       0x24 contiki-OrisenStamp.a(mac.o)
                0x00403ecc                .real_start_ofmac_call_sent_callback
                0x00403ec4                mac_call_sent_callback
 .text.packetbuf_set_attr
                0x00403ee8       0x10 contiki-OrisenStamp.a(framer-802154.o)
 .text.packetbuf_addr
                0x00403ef8       0x10 contiki-OrisenStamp.a(framer-802154.o)
 .text.packetbuf_set_addr
                0x00403f08       0x28 contiki-OrisenStamp.a(framer-802154.o)
 .text.parse    0x00403f30       0xc8 contiki-OrisenStamp.a(framer-802154.o)
 .text.create   0x00403ff8      0x15c contiki-OrisenStamp.a(framer-802154.o)
 .text.packetbuf_addr
                0x00404154       0x10 contiki-OrisenStamp.a(csma.o)
 .text.default_timebase
                0x00404164       0x20 contiki-OrisenStamp.a(csma.o)
 .text.input_packet
                0x00404184       0x18 contiki-OrisenStamp.a(csma.o)
 .text.on       0x0040419c       0x18 contiki-OrisenStamp.a(csma.o)
 .text.off      0x004041b4       0x18 contiki-OrisenStamp.a(csma.o)
 .text.channel_check_interval
                0x004041cc       0x20 contiki-OrisenStamp.a(csma.o)
 .text.transmit_packet_list
                0x004041ec       0x38 contiki-OrisenStamp.a(csma.o)
 .text.send_packet
                0x00404224      0x1cc contiki-OrisenStamp.a(csma.o)
 .text.free_first_packet
                0x004043f0       0xc4 contiki-OrisenStamp.a(csma.o)
 .text.packet_sent
                0x004044b4       0xf0 contiki-OrisenStamp.a(csma.o)
 .text.init     0x004045a4       0x30 contiki-OrisenStamp.a(csma.o)
 .text.process_alloc_event
                0x004045d4       0x18 contiki-OrisenStamp.a(process.o)
                0x004045dc                .real_start_ofprocess_alloc_event
                0x004045d4                process_alloc_event
 .text.process_init
                0x004045ec       0x40 contiki-OrisenStamp.a(process.o)
                0x004045ec                process_init
                0x004045f4                .real_start_ofprocess_init
 .text.process_post
                0x0040462c       0x68 contiki-OrisenStamp.a(process.o)
                0x0040462c                process_post
                0x00404634                .real_start_ofprocess_post
 .text.process_poll
                0x00404694       0x2c contiki-OrisenStamp.a(process.o)
                0x00404694                process_poll
                0x0040469c                .real_start_ofprocess_poll
 .text.process_is_running
                0x004046c0       0x10 contiki-OrisenStamp.a(process.o)
                0x004046c0                process_is_running
                0x004046c8                .real_start_ofprocess_is_running
 .text.exit_process
                0x004046d0       0xa4 contiki-OrisenStamp.a(process.o)
 .text.call_process
                0x00404774       0x50 contiki-OrisenStamp.a(process.o)
 .text.process_post_synch
                0x004047c4       0x28 contiki-OrisenStamp.a(process.o)
                0x004047cc                .real_start_ofprocess_post_synch
                0x004047c4                process_post_synch
 .text.process_start
                0x004047ec       0x44 contiki-OrisenStamp.a(process.o)
                0x004047f4                .real_start_ofprocess_start
                0x004047ec                process_start
 .text.do_poll  0x00404830       0x44 contiki-OrisenStamp.a(process.o)
 .text.process_run
                0x00404874       0xdc contiki-OrisenStamp.a(process.o)
                0x0040487c                .real_start_ofprocess_run
                0x00404874                process_run
 .text.process_exit
                0x00404950       0x28 contiki-OrisenStamp.a(process.o)
                0x00404958                .real_start_ofprocess_exit
                0x00404950                process_exit
 .text.autostart_start
                0x00404978       0x2c contiki-OrisenStamp.a(autostart.o)
                0x00404980                .real_start_ofautostart_start
                0x00404978                autostart_start
 .text.process_thread_serial_line_process
                0x004049a4      0x168 contiki-OrisenStamp.a(serial-line.o)
 .text.serial_line_init
                0x00404b0c       0x50 contiki-OrisenStamp.a(serial-line.o)
                0x00404b14                .real_start_ofserial_line_init
                0x00404b0c                serial_line_init
 .text.serial_line_input_byte
                0x00404b5c       0x9c contiki-OrisenStamp.a(serial-line.o)
                0x00404b64                .real_start_ofserial_line_input_byte
                0x00404b5c                serial_line_input_byte
 .text.memb_alloc
                0x00404bf8       0x38 contiki-OrisenStamp.a(memb.o)
                0x00404c00                .real_start_ofmemb_alloc
                0x00404bf8                memb_alloc
 .text.memb_free
                0x00404c30       0x40 contiki-OrisenStamp.a(memb.o)
                0x00404c30                memb_free
                0x00404c38                .real_start_ofmemb_free
 .text.memb_inmemb
                0x00404c70       0x34 contiki-OrisenStamp.a(memb.o)
                0x00404c78                .real_start_ofmemb_inmemb
                0x00404c70                memb_inmemb
 .text.memb_init
                0x00404ca4       0x34 contiki-OrisenStamp.a(memb.o)
                0x00404cac                .real_start_ofmemb_init
                0x00404ca4                memb_init
 .text.list_init
                0x00404cd8       0x10 contiki-OrisenStamp.a(list.o)
                0x00404ce0                .real_start_oflist_init
                0x00404cd8                list_init
 .text.list_head
                0x00404ce8        0xc contiki-OrisenStamp.a(list.o)
                0x00404ce8                list_head
                0x00404cf0                .real_start_oflist_head
 .text.list_tail
                0x00404cf4       0x20 contiki-OrisenStamp.a(list.o)
                0x00404cf4                list_tail
                0x00404cfc                .real_start_oflist_tail
 .text.list_chop
                0x00404d14       0x34 contiki-OrisenStamp.a(list.o)
                0x00404d14                list_chop
                0x00404d1c                .real_start_oflist_chop
 .text.list_pop
                0x00404d48       0x1c contiki-OrisenStamp.a(list.o)
                0x00404d50                .real_start_oflist_pop
                0x00404d48                list_pop
 .text.list_remove
                0x00404d64       0x38 contiki-OrisenStamp.a(list.o)
                0x00404d6c                .real_start_oflist_remove
                0x00404d64                list_remove
 .text.list_push
                0x00404d9c       0x28 contiki-OrisenStamp.a(list.o)
                0x00404d9c                list_push
                0x00404da4                .real_start_oflist_push
 .text.list_add
                0x00404dc4       0x3c contiki-OrisenStamp.a(list.o)
                0x00404dc4                list_add
                0x00404dcc                .real_start_oflist_add
 .text.list_length
                0x00404e00       0x1c contiki-OrisenStamp.a(list.o)
                0x00404e00                list_length
                0x00404e08                .real_start_oflist_length
 .text.list_insert
                0x00404e1c       0x2c contiki-OrisenStamp.a(list.o)
                0x00404e24                .real_start_oflist_insert
                0x00404e1c                list_insert
 .text.list_item_next
                0x00404e48       0x14 contiki-OrisenStamp.a(list.o)
                0x00404e48                list_item_next
                0x00404e50                .real_start_oflist_item_next
 .text.etimer_expired
                0x00404e5c       0x10 contiki-OrisenStamp.a(etimer.o)
                0x00404e64                .real_start_ofetimer_expired
                0x00404e5c                etimer_expired
 .text.etimer_pending
                0x00404e6c       0x18 contiki-OrisenStamp.a(etimer.o)
                0x00404e6c                etimer_pending
                0x00404e74                .real_start_ofetimer_pending
 .text.etimer_next_expiration_time
                0x00404e84       0x2c contiki-OrisenStamp.a(etimer.o)
                0x00404e84                etimer_next_expiration_time
                0x00404e8c                .real_start_ofetimer_next_expiration_time
 .text.update_time
                0x00404eb0       0x54 contiki-OrisenStamp.a(etimer.o)
 .text.etimer_stop
                0x00404f04       0x4c contiki-OrisenStamp.a(etimer.o)
                0x00404f04                etimer_stop
                0x00404f0c                .real_start_ofetimer_stop
 .text.etimer_request_poll
                0x00404f50       0x24 contiki-OrisenStamp.a(etimer.o)
                0x00404f58                .real_start_ofetimer_request_poll
                0x00404f50                etimer_request_poll
 .text.process_thread_etimer_process
                0x00404f74       0xc8 contiki-OrisenStamp.a(etimer.o)
 .text.add_timer
                0x0040503c       0x50 contiki-OrisenStamp.a(etimer.o)
 .text.etimer_reset
                0x0040508c       0x2c contiki-OrisenStamp.a(etimer.o)
                0x0040508c                etimer_reset
                0x00405094                .real_start_ofetimer_reset
 .text.etimer_set
                0x004050b8       0x2c contiki-OrisenStamp.a(etimer.o)
                0x004050b8                etimer_set
                0x004050c0                .real_start_ofetimer_set
 .text.process_thread_ctimer_process
                0x004050e4       0xa8 contiki-OrisenStamp.a(ctimer.o)
 .text.ctimer_stop
                0x0040518c       0x48 contiki-OrisenStamp.a(ctimer.o)
                0x00405194                .real_start_ofctimer_stop
                0x0040518c                ctimer_stop
 .text.ctimer_set
                0x004051d4       0x74 contiki-OrisenStamp.a(ctimer.o)
                0x004051d4                ctimer_set
                0x004051dc                .real_start_ofctimer_set
 .text.ctimer_init
                0x00405248       0x40 contiki-OrisenStamp.a(ctimer.o)
                0x00405250                .real_start_ofctimer_init
                0x00405248                ctimer_init
 .text.random_rand
                0x00405288       0x24 contiki-OrisenStamp.a(random.o)
                0x00405288                random_rand
                0x00405290                .real_start_ofrandom_rand
 .text.ringbuf_init
                0x004052ac       0x18 contiki-OrisenStamp.a(ringbuf.o)
                0x004052ac                ringbuf_init
                0x004052b4                .real_start_ofringbuf_init
 .text.ringbuf_put
                0x004052c4       0x34 contiki-OrisenStamp.a(ringbuf.o)
                0x004052c4                ringbuf_put
                0x004052cc                .real_start_ofringbuf_put
 .text.ringbuf_get
                0x004052f8       0x30 contiki-OrisenStamp.a(ringbuf.o)
                0x004052f8                ringbuf_get
                0x00405300                .real_start_ofringbuf_get
 .text.packetbuf_hdrreduce
                0x00405328       0x38 contiki-OrisenStamp.a(packetbuf.o)
                0x00405330                .real_start_ofpacketbuf_hdrreduce
                0x00405328                packetbuf_hdrreduce
 .text.packetbuf_set_datalen
                0x00405360       0x14 contiki-OrisenStamp.a(packetbuf.o)
                0x00405360                packetbuf_set_datalen
                0x00405368                .real_start_ofpacketbuf_set_datalen
 .text.packetbuf_dataptr
                0x00405374       0x20 contiki-OrisenStamp.a(packetbuf.o)
                0x0040537c                .real_start_ofpacketbuf_dataptr
                0x00405374                packetbuf_dataptr
 .text.packetbuf_hdrptr
                0x00405394       0x1c contiki-OrisenStamp.a(packetbuf.o)
                0x00405394                packetbuf_hdrptr
                0x0040539c                .real_start_ofpacketbuf_hdrptr
 .text.packetbuf_is_reference
                0x004053b0       0x24 contiki-OrisenStamp.a(packetbuf.o)
                0x004053b0                packetbuf_is_reference
                0x004053b8                .real_start_ofpacketbuf_is_reference
 .text.packetbuf_reference_ptr
                0x004053d4       0x14 contiki-OrisenStamp.a(packetbuf.o)
                0x004053d4                packetbuf_reference_ptr
                0x004053dc                .real_start_ofpacketbuf_reference_ptr
 .text.packetbuf_datalen
                0x004053e8       0x14 contiki-OrisenStamp.a(packetbuf.o)
                0x004053e8                packetbuf_datalen
                0x004053f0                .real_start_ofpacketbuf_datalen
 .text.packetbuf_hdrlen
                0x004053fc       0x1c contiki-OrisenStamp.a(packetbuf.o)
                0x004053fc                packetbuf_hdrlen
                0x00405404                .real_start_ofpacketbuf_hdrlen
 .text.packetbuf_totlen
                0x00405418       0x2c contiki-OrisenStamp.a(packetbuf.o)
                0x00405418                packetbuf_totlen
                0x00405420                .real_start_ofpacketbuf_totlen
 .text.packetbuf_hdralloc
                0x00405444       0x3c contiki-OrisenStamp.a(packetbuf.o)
                0x0040544c                .real_start_ofpacketbuf_hdralloc
                0x00405444                packetbuf_hdralloc
 .text.packetbuf_attr_copyfrom
                0x00405480       0x3c contiki-OrisenStamp.a(packetbuf.o)
                0x00405480                packetbuf_attr_copyfrom
                0x00405488                .real_start_ofpacketbuf_attr_copyfrom
 .text.packetbuf_attr_copyto
                0x004054bc       0x38 contiki-OrisenStamp.a(packetbuf.o)
                0x004054bc                packetbuf_attr_copyto
                0x004054c4                .real_start_ofpacketbuf_attr_copyto
 .text.packetbuf_copyto
                0x004054f4       0x74 contiki-OrisenStamp.a(packetbuf.o)
                0x004054f4                packetbuf_copyto
                0x004054fc                .real_start_ofpacketbuf_copyto
 .text.packetbuf_copyto_hdr
                0x00405568       0x3c contiki-OrisenStamp.a(packetbuf.o)
                0x00405568                packetbuf_copyto_hdr
                0x00405570                .real_start_ofpacketbuf_copyto_hdr
 .text.packetbuf_compact
                0x004055a4       0x7c contiki-OrisenStamp.a(packetbuf.o)
                0x004055ac                .real_start_ofpacketbuf_compact
                0x004055a4                packetbuf_compact
 .text.packetbuf_attr_clear
                0x00405620       0x5c contiki-OrisenStamp.a(packetbuf.o)
                0x00405628                .real_start_ofpacketbuf_attr_clear
                0x00405620                packetbuf_attr_clear
 .text.packetbuf_clear
                0x0040567c       0x4c contiki-OrisenStamp.a(packetbuf.o)
                0x00405684                .real_start_ofpacketbuf_clear
                0x0040567c                packetbuf_clear
 .text.packetbuf_copyfrom
                0x004056c8       0x50 contiki-OrisenStamp.a(packetbuf.o)
                0x004056c8                packetbuf_copyfrom
                0x004056d0                .real_start_ofpacketbuf_copyfrom
 .text.queuebuf_datalen
                0x00405718       0x10 contiki-OrisenStamp.a(queuebuf.o)
                0x00405718                queuebuf_datalen
                0x00405720                .real_start_ofqueuebuf_datalen
 .text.queuebuf_dataptr
                0x00405728       0x44 contiki-OrisenStamp.a(queuebuf.o)
                0x00405728                queuebuf_dataptr
                0x00405730                .real_start_ofqueuebuf_dataptr
 .text.queuebuf_to_packetbuf
                0x0040576c       0xa0 contiki-OrisenStamp.a(queuebuf.o)
                0x00405774                .real_start_ofqueuebuf_to_packetbuf
                0x0040576c                queuebuf_to_packetbuf
 .text.queuebuf_free
                0x0040580c       0x6c contiki-OrisenStamp.a(queuebuf.o)
                0x0040580c                queuebuf_free
                0x00405814                .real_start_ofqueuebuf_free
 .text.queuebuf_update_attr_from_packetbuf
                0x00405878       0x28 contiki-OrisenStamp.a(queuebuf.o)
                0x00405878                queuebuf_update_attr_from_packetbuf
                0x00405880                .real_start_ofqueuebuf_update_attr_from_packetbuf
 .text.queuebuf_new_from_packetbuf
                0x004058a0       0xb0 contiki-OrisenStamp.a(queuebuf.o)
                0x004058a0                queuebuf_new_from_packetbuf
                0x004058a8                .real_start_ofqueuebuf_new_from_packetbuf
 .text.queuebuf_init
                0x00405950       0x38 contiki-OrisenStamp.a(queuebuf.o)
                0x00405950                queuebuf_init
                0x00405958                .real_start_ofqueuebuf_init
 .text.shell_exit
                0x00405988        0xc contiki-OrisenStamp.a(serial-shell.o)
                0x00405990                .real_start_ofshell_exit
                0x00405988                shell_exit
 .text.process_thread_serial_shell_process
                0x00405994       0x64 contiki-OrisenStamp.a(serial-shell.o)
 .text.serial_shell_init
                0x004059f8       0x28 contiki-OrisenStamp.a(serial-shell.o)
                0x00405a00                .real_start_ofserial_shell_init
                0x004059f8                serial_shell_init
 .text.shell_prompt
                0x00405a20       0x30 contiki-OrisenStamp.a(serial-shell.o)
                0x00405a20                shell_prompt
                0x00405a28                .real_start_ofshell_prompt
 .text.shell_default_output
                0x00405a50       0x68 contiki-OrisenStamp.a(serial-shell.o)
                0x00405a50                shell_default_output
                0x00405a58                .real_start_ofshell_default_output
 .text.process_thread_shell_null_process
                0x00405ab8       0x44 contiki-OrisenStamp.a(shell.o)
 .text.shell_strtolong
                0x00405afc       0x60 contiki-OrisenStamp.a(shell.o)
                0x00405afc                shell_strtolong
                0x00405b04                .real_start_ofshell_strtolong
 .text.process_thread_shell_exit_process
                0x00405b5c       0x24 contiki-OrisenStamp.a(shell.o)
 .text.input_to_child_command
                0x00405b80       0x48 contiki-OrisenStamp.a(shell.o)
 .text.shell_input
                0x00405bc8       0x80 contiki-OrisenStamp.a(shell.o)
                0x00405bd0                .real_start_ofshell_input
                0x00405bc8                shell_input
 .text.shell_set_time
                0x00405c48       0x2c contiki-OrisenStamp.a(shell.o)
                0x00405c48                shell_set_time
                0x00405c50                .real_start_ofshell_set_time
 .text.shell_time
                0x00405c74       0x28 contiki-OrisenStamp.a(shell.o)
                0x00405c74                shell_time
                0x00405c7c                .real_start_ofshell_time
 .text.process_thread_shell_server_process
                0x00405c9c       0xbc contiki-OrisenStamp.a(shell.o)
 .text.shell_register_command
                0x00405d58       0x78 contiki-OrisenStamp.a(shell.o)
                0x00405d60                .real_start_ofshell_register_command
                0x00405d58                shell_register_command
 .text.shell_init
                0x00405dd0       0xac contiki-OrisenStamp.a(shell.o)
                0x00405dd0                shell_init
                0x00405dd8                .real_start_ofshell_init
 .text.shell_output
                0x00405e7c       0x44 contiki-OrisenStamp.a(shell.o)
                0x00405e7c                shell_output
                0x00405e84                .real_start_ofshell_output
 .text.shell_output_str
                0x00405ec0       0x74 contiki-OrisenStamp.a(shell.o)
                0x00405ec0                shell_output_str
                0x00405ec8                .real_start_ofshell_output_str
 .text.command_kill
                0x00405f34       0x38 contiki-OrisenStamp.a(shell.o)
 .text.killall  0x00405f6c       0x4c contiki-OrisenStamp.a(shell.o)
 .text.process_thread_shell_killall_process
                0x00405fb8       0x24 contiki-OrisenStamp.a(shell.o)
 .text.process_thread_shell_kill_process
                0x00405fdc       0xa8 contiki-OrisenStamp.a(shell.o)
 .text.process_thread_help_command_process
                0x00406084       0x5c contiki-OrisenStamp.a(shell.o)
 .text.start_command
                0x004060e0      0x17c contiki-OrisenStamp.a(shell.o)
 .text.shell_start_command
                0x0040625c       0x58 contiki-OrisenStamp.a(shell.o)
                0x0040625c                shell_start_command
                0x00406264                .real_start_ofshell_start_command
 .text.process_thread_shell_process
                0x004062b4       0xdc contiki-OrisenStamp.a(shell.o)
 .text.process_thread_shell_reboot_process
                0x00406390      0x100 contiki-OrisenStamp.a(shell-reboot.o)
 .text.shell_reboot_init
                0x00406490       0x24 contiki-OrisenStamp.a(shell-reboot.o)
                0x00406498                .real_start_ofshell_reboot_init
                0x00406490                shell_reboot_init
 .text.process_thread_shell_rm_process
                0x004064b4       0x40 contiki-OrisenStamp.a(shell-file.o)
 .text.process_thread_shell_read_process
                0x004064f4      0x1d8 contiki-OrisenStamp.a(shell-file.o)
 .text.process_thread_shell_write_process
                0x004066cc       0xf8 contiki-OrisenStamp.a(shell-file.o)
 .text.process_thread_shell_append_process
                0x004067c4       0xd4 contiki-OrisenStamp.a(shell-file.o)
 .text.process_thread_shell_ls_process
                0x00406898       0xd8 contiki-OrisenStamp.a(shell-file.o)
 .text.shell_file_init
                0x00406970       0x4c contiki-OrisenStamp.a(shell-file.o)
                0x00406978                .real_start_ofshell_file_init
                0x00406970                shell_file_init
 .text.clock_init
                0x004069bc       0x50 contiki-OrisenStamp.a(clock.o)
                0x004069bc                clock_init
                0x004069c4                .real_start_ofclock_init
 .text.clock_time
                0x00406a0c       0x14 contiki-OrisenStamp.a(clock.o)
                0x00406a14                .real_start_ofclock_time
                0x00406a0c                clock_time
 .text.clock_seconds
                0x00406a20       0x14 contiki-OrisenStamp.a(clock.o)
                0x00406a20                clock_seconds
                0x00406a28                .real_start_ofclock_seconds
 .text.clock_delay_usec
                0x00406a34       0x44 contiki-OrisenStamp.a(clock.o)
                0x00406a34                clock_delay_usec
                0x00406a3c                .real_start_ofclock_delay_usec
 .text.clock_delay_msec
                0x00406a78       0x30 contiki-OrisenStamp.a(clock.o)
                0x00406a78                clock_delay_msec
                0x00406a80                .real_start_ofclock_delay_msec
 .text.tmr0_isr
                0x00406aa8       0xa0 contiki-OrisenStamp.a(clock.o)
                0x00406ab0                .real_start_oftmr0_isr
                0x00406aa8                tmr0_isr
 .text.status   0x00406b48       0x1c contiki-OrisenStamp.a(button-sensor.o)
 .text.configure
                0x00406b64       0x4c contiki-OrisenStamp.a(button-sensor.o)
 .text.value    0x00406bb0       0x30 contiki-OrisenStamp.a(button-sensor.o)
 .text.kbi4_isr
                0x00406be0       0x34 contiki-OrisenStamp.a(button-sensor.o)
                0x00406be0                kbi4_isr
                0x00406be8                .real_start_ofkbi4_isr
 .text.get_sensor_index
                0x00406c14       0x28 contiki-OrisenStamp.a(sensors.o)
 .text.process_thread_sensors_process
                0x00406c3c       0xec contiki-OrisenStamp.a(sensors.o)
 .text.sensors_changed
                0x00406d28       0x40 contiki-OrisenStamp.a(sensors.o)
                0x00406d30                .real_start_ofsensors_changed
                0x00406d28                sensors_changed
 .text.get_fattime
                0x00406d68       0x5c contiki-OrisenStamp.a(uSDcard.o)
                0x00406d70                .real_start_ofget_fattime
                0x00406d68                get_fattime
 .text.uSDcard_power_down
                0x00406dc4        0xc contiki-OrisenStamp.a(uSDcard.o)
                0x00406dc4                uSDcard_power_down
                0x00406dcc                .real_start_ofuSDcard_power_down
 .text.put_rc   0x00406dd0       0x4c contiki-OrisenStamp.a(uSDcard.o)
                0x00406dd8                .real_start_ofput_rc
                0x00406dd0                put_rc
 .text.uSDcard_init
                0x00406e1c       0x40 contiki-OrisenStamp.a(uSDcard.o)
                0x00406e1c                uSDcard_init
                0x00406e24                .real_start_ofuSDcard_init
 .text.mem_cpy  0x00406e5c       0x20 contiki-OrisenStamp.a(ff.o)
 .text.mem_set  0x00406e7c       0x14 contiki-OrisenStamp.a(ff.o)
 .text.clust2sect
                0x00406e90       0x28 contiki-OrisenStamp.a(ff.o)
                0x00406e98                .real_start_ofclust2sect
                0x00406e90                clust2sect
 .text.f_mount  0x00406eb8       0x34 contiki-OrisenStamp.a(ff.o)
                0x00406eb8                f_mount
                0x00406ec0                .real_start_off_mount
 .text.validate
                0x00406eec       0x38 contiki-OrisenStamp.a(ff.o)
 .text.check_fs
                0x00406f24       0xbc contiki-OrisenStamp.a(ff.o)
 .text.chk_mounted
                0x00406fe0      0x3b0 contiki-OrisenStamp.a(ff.o)
 .text.move_window
                0x00407390       0x94 contiki-OrisenStamp.a(ff.o)
 .text.put_fat  0x00407424      0x148 contiki-OrisenStamp.a(ff.o)
                0x00407424                put_fat
                0x0040742c                .real_start_ofput_fat
 .text.get_fat  0x0040756c      0x104 contiki-OrisenStamp.a(ff.o)
                0x0040756c                get_fat
                0x00407574                .real_start_ofget_fat
 .text.dir_sdi  0x00407670       0xa0 contiki-OrisenStamp.a(ff.o)
 .text.create_chain
                0x00407710       0xb4 contiki-OrisenStamp.a(ff.o)
 .text.remove_chain
                0x004077c4       0x70 contiki-OrisenStamp.a(ff.o)
 .text.dir_next
                0x00407834      0x120 contiki-OrisenStamp.a(ff.o)
 .text.follow_path
                0x00407954      0x1e4 contiki-OrisenStamp.a(ff.o)
 .text.dir_register
                0x00407b38       0x88 contiki-OrisenStamp.a(ff.o)
 .text.f_lseek  0x00407bc0      0x1b4 contiki-OrisenStamp.a(ff.o)
                0x00407bc0                f_lseek
                0x00407bc8                .real_start_off_lseek
 .text.f_write  0x00407d74      0x220 contiki-OrisenStamp.a(ff.o)
                0x00407d7c                .real_start_off_write
                0x00407d74                f_write
 .text.f_read   0x00407f94      0x1cc contiki-OrisenStamp.a(ff.o)
                0x00407f9c                .real_start_off_read
                0x00407f94                f_read
 .text.sync     0x00408160       0xec contiki-OrisenStamp.a(ff.o)
 .text.f_sync   0x0040824c       0xc8 contiki-OrisenStamp.a(ff.o)
                0x00408254                .real_start_off_sync
                0x0040824c                f_sync
 .text.f_close  0x00408314       0x28 contiki-OrisenStamp.a(ff.o)
                0x0040831c                .real_start_off_close
                0x00408314                f_close
 .text.f_open   0x0040833c      0x184 contiki-OrisenStamp.a(ff.o)
                0x0040833c                f_open
                0x00408344                .real_start_off_open
 .text.xchg_spi
                0x004084c0       0x48 contiki-OrisenStamp.a(diskio.o)
                0x004084c8                .real_start_ofxchg_spi
                0x004084c0                xchg_spi
 .text.rcvr_spi_m
                0x00408508       0x24 contiki-OrisenStamp.a(diskio.o)
                0x00408510                .real_start_ofrcvr_spi_m
                0x00408508                rcvr_spi_m
 .text.wait_ready
                0x0040852c       0x38 contiki-OrisenStamp.a(diskio.o)
 .text.deselect
                0x00408564       0x28 contiki-OrisenStamp.a(diskio.o)
 .text.select   0x0040858c       0x48 contiki-OrisenStamp.a(diskio.o)
 .text.rcvr_datablock
                0x004085d4       0x74 contiki-OrisenStamp.a(diskio.o)
 .text.xmit_datablock
                0x00408648       0x74 contiki-OrisenStamp.a(diskio.o)
 .text.send_cmd
                0x004086bc       0xb4 contiki-OrisenStamp.a(diskio.o)
 .text.disk_initialize
                0x00408770      0x22c contiki-OrisenStamp.a(diskio.o)
                0x00408770                disk_initialize
                0x00408778                .real_start_ofdisk_initialize
 .text.disk_status
                0x0040899c       0x20 contiki-OrisenStamp.a(diskio.o)
                0x0040899c                disk_status
                0x004089a4                .real_start_ofdisk_status
 .text.disk_read
                0x004089bc       0xb8 contiki-OrisenStamp.a(diskio.o)
                0x004089c4                .real_start_ofdisk_read
                0x004089bc                disk_read
 .text.disk_write
                0x00408a74       0xd8 contiki-OrisenStamp.a(diskio.o)
                0x00408a7c                .real_start_ofdisk_write
                0x00408a74                disk_write
 .text.disk_ioctl
                0x00408b4c      0x1fc contiki-OrisenStamp.a(diskio.o)
                0x00408b4c                disk_ioctl
                0x00408b54                .real_start_ofdisk_ioctl
 .text.put_rc   0x00408d48       0x28 contiki-OrisenStamp.a(cfs-fat.o)
 .text.cfs_remove
                0x00408d70        0xc contiki-OrisenStamp.a(cfs-fat.o)
                0x00408d70                cfs_remove
                0x00408d78                .real_start_ofcfs_remove
 .text.cfs_opendir
                0x00408d7c       0x10 contiki-OrisenStamp.a(cfs-fat.o)
                0x00408d7c                cfs_opendir
                0x00408d84                .real_start_ofcfs_opendir
 .text.cfs_readdir
                0x00408d8c       0x10 contiki-OrisenStamp.a(cfs-fat.o)
                0x00408d8c                cfs_readdir
                0x00408d94                .real_start_ofcfs_readdir
 .text.cfs_closedir
                0x00408d9c        0xc contiki-OrisenStamp.a(cfs-fat.o)
                0x00408d9c                cfs_closedir
                0x00408da4                .real_start_ofcfs_closedir
 .text.cfs_seek
                0x00408da8       0x58 contiki-OrisenStamp.a(cfs-fat.o)
                0x00408db0                .real_start_ofcfs_seek
                0x00408da8                cfs_seek
 .text.cfs_write
                0x00408e00       0x6c contiki-OrisenStamp.a(cfs-fat.o)
                0x00408e00                cfs_write
                0x00408e08                .real_start_ofcfs_write
 .text.cfs_read
                0x00408e6c       0x38 contiki-OrisenStamp.a(cfs-fat.o)
                0x00408e6c                cfs_read
                0x00408e74                .real_start_ofcfs_read
 .text.cfs_close
                0x00408ea4       0x2c contiki-OrisenStamp.a(cfs-fat.o)
                0x00408eac                .real_start_ofcfs_close
                0x00408ea4                cfs_close
 .text.cfs_open
                0x00408ed0       0xc0 contiki-OrisenStamp.a(cfs-fat.o)
                0x00408ed8                .real_start_ofcfs_open
                0x00408ed0                cfs_open
 .text.M41T62_writeRegN
                0x00408f90       0x30 contiki-OrisenStamp.a(RTC.o)
                0x00408f98                .real_start_ofM41T62_writeRegN
                0x00408f90                M41T62_writeRegN
 .text.M41T62_writeReg
                0x00408fc0       0x58 contiki-OrisenStamp.a(RTC.o)
                0x00408fc8                .real_start_ofM41T62_writeReg
                0x00408fc0                M41T62_writeReg
 .text.M41T62_readRegN
                0x00409018       0x58 contiki-OrisenStamp.a(RTC.o)
                0x00409018                M41T62_readRegN
                0x00409020                .real_start_ofM41T62_readRegN
 .text.RTC_resetRegisters
                0x00409070       0x74 contiki-OrisenStamp.a(RTC.o)
                0x00409078                .real_start_ofRTC_resetRegisters
                0x00409070                RTC_resetRegisters
 .text.RTC_getTime
                0x004090e4       0xb8 contiki-OrisenStamp.a(RTC.o)
                0x004090ec                .real_start_ofRTC_getTime
                0x004090e4                RTC_getTime
 .text.M41T62_readReg
                0x0040919c       0x58 contiki-OrisenStamp.a(RTC.o)
                0x0040919c                M41T62_readReg
                0x004091a4                .real_start_ofM41T62_readReg
 .text.process_thread_RTC_process
                0x004091f4       0x7c contiki-OrisenStamp.a(RTC.o)
 .text.RTC_start
                0x00409270       0x40 contiki-OrisenStamp.a(RTC.o)
                0x00409270                RTC_start
                0x00409278                .real_start_ofRTC_start
 .text.RTC_stop
                0x004092b0       0x44 contiki-OrisenStamp.a(RTC.o)
                0x004092b8                .real_start_ofRTC_stop
                0x004092b0                RTC_stop
 .text.kbi5_isr
                0x004092f4       0x3c contiki-OrisenStamp.a(RTC.o)
                0x004092f4                kbi5_isr
                0x004092fc                .real_start_ofkbi5_isr
 .text.RTC_init
                0x00409330       0xc8 contiki-OrisenStamp.a(RTC.o)
                0x00409330                RTC_init
                0x00409338                .real_start_ofRTC_init
 .text.kbi_event_init
                0x004093f8       0xdc contiki-OrisenStamp.a(kbi_events.o)
                0x004093f8                kbi_event_init
                0x00409400                .real_start_ofkbi_event_init
 .text.process_thread_kbi_event_process
                0x004094d4       0xa4 contiki-OrisenStamp.a(kbi_events.o)
 .text.kbi7_isr
                0x00409578       0x44 contiki-OrisenStamp.a(kbi_events.o)
                0x00409578                kbi7_isr
                0x00409580                .real_start_ofkbi7_isr
 .text.kbi6_isr
                0x004095bc       0x44 contiki-OrisenStamp.a(kbi_events.o)
                0x004095c4                .real_start_ofkbi6_isr
                0x004095bc                kbi6_isr
 .text.ioPins_configurePin
                0x00409600      0x5d4 contiki-OrisenStamp.a(io-pins.o)
                0x00409608                .real_start_ofioPins_configurePin
                0x00409600                ioPins_configurePin
 .text.ioPins_init
                0x00409bd4       0x78 contiki-OrisenStamp.a(io-pins.o)
                0x00409bd4                ioPins_init
                0x00409bdc                .real_start_ofioPins_init
 .text.watchdog_reboot
                0x00409c4c        0xc contiki-OrisenStamp.a(watchdog.o)
                0x00409c54                .real_start_ofwatchdog_reboot
                0x00409c4c                watchdog_reboot
 .text.cal_ring_osc
                0x00409c58       0x6c contiki-OrisenStamp.a(contiki-crm.o)
                0x00409c58                cal_ring_osc
                0x00409c60                .real_start_ofcal_ring_osc
 .text.packetbuf_set_attr
                0x00409cc4       0x10 contiki-OrisenStamp.a(contiki-maca.o)
 .text.contiki_maca_init
                0x00409cd4        0xc contiki-OrisenStamp.a(contiki-maca.o)
                0x00409cdc                .real_start_ofcontiki_maca_init
                0x00409cd4                contiki_maca_init
 .text.contiki_maca_channel_clear
                0x00409ce0        0xc contiki-OrisenStamp.a(contiki-maca.o)
                0x00409ce8                .real_start_ofcontiki_maca_channel_clear
                0x00409ce0                contiki_maca_channel_clear
 .text.contiki_maca_receiving_packet
                0x00409cec        0xc contiki-OrisenStamp.a(contiki-maca.o)
                0x00409cec                contiki_maca_receiving_packet
                0x00409cf4                .real_start_ofcontiki_maca_receiving_packet
 .text.contiki_maca_pending_packet
                0x00409cf8       0x18 contiki-OrisenStamp.a(contiki-maca.o)
                0x00409d00                .real_start_ofcontiki_maca_pending_packet
                0x00409cf8                contiki_maca_pending_packet
 .text.contiki_maca_on_request
                0x00409d10       0x20 contiki-OrisenStamp.a(contiki-maca.o)
                0x00409d18                .real_start_ofcontiki_maca_on_request
                0x00409d10                contiki_maca_on_request
 .text.contiki_maca_off_request
                0x00409d30       0x20 contiki-OrisenStamp.a(contiki-maca.o)
                0x00409d30                contiki_maca_off_request
                0x00409d38                .real_start_ofcontiki_maca_off_request
 .text.maca_rx_callback
                0x00409d50       0x24 contiki-OrisenStamp.a(contiki-maca.o)
                0x00409d50                maca_rx_callback
                0x00409d58                .real_start_ofmaca_rx_callback
 .text.contiki_maca_prepare
                0x00409d74       0x44 contiki-OrisenStamp.a(contiki-maca.o)
                0x00409d7c                .real_start_ofcontiki_maca_prepare
                0x00409d74                contiki_maca_prepare
 .text.contiki_maca_transmit
                0x00409db8       0x58 contiki-OrisenStamp.a(contiki-maca.o)
                0x00409db8                contiki_maca_transmit
                0x00409dc0                .real_start_ofcontiki_maca_transmit
 .text.contiki_maca_send
                0x00409e10       0x4c contiki-OrisenStamp.a(contiki-maca.o)
                0x00409e18                .real_start_ofcontiki_maca_send
                0x00409e10                contiki_maca_send
 .text.contiki_maca_read
                0x00409e5c       0x74 contiki-OrisenStamp.a(contiki-maca.o)
                0x00409e64                .real_start_ofcontiki_maca_read
                0x00409e5c                contiki_maca_read
 .text.process_thread_contiki_maca_process
                0x00409ed0       0xb4 contiki-OrisenStamp.a(contiki-maca.o)
 .text.rand     0x00409f84       0x14 contiki-OrisenStamp.a(contiki-misc.o)
                0x00409f84                rand
                0x00409f8c                .real_start_ofrand
 .text.show_leds
                0x00409f98       0x28 contiki-OrisenStamp.a(leds.o)
 .text.leds_off
                0x00409fc0       0x30 contiki-OrisenStamp.a(leds.o)
                0x00409fc0                leds_off
                0x00409fc8                .real_start_ofleds_off
 .text.leds_on  0x00409ff0       0x30 contiki-OrisenStamp.a(leds.o)
                0x00409ff0                leds_on
                0x00409ff8                .real_start_ofleds_on
 .text.leds_init
                0x0040a020       0x30 contiki-OrisenStamp.a(leds.o)
                0x0040a028                .real_start_ofleds_init
                0x0040a020                leds_init
 .text.uart1_set_input
                0x0040a050       0x14 contiki-OrisenStamp.a(contiki-uart.o)
                0x0040a058                .real_start_ofuart1_set_input
                0x0040a050                uart1_set_input
 .text.printf   0x0040a064       0x34 contiki-OrisenStamp.a(dbg-printf.o)
                0x0040a064                printf
                0x0040a06c                .real_start_ofprintf
 .text.write_str
                0x0040a098       0x20 contiki-OrisenStamp.a(dbg-printf.o)
 .text.sprintf  0x0040a0b8       0x44 contiki-OrisenStamp.a(dbg-sprintf.o)
                0x0040a0c0                .real_start_ofsprintf
                0x0040a0b8                sprintf
 .text.buffer_str
                0x0040a0fc       0x24 contiki-OrisenStamp.a(dbg-sprintf.o)
 .text.parse_uint
                0x0040a120       0x28 contiki-OrisenStamp.a(strformat.o)
 .text.output_uint_hex
                0x0040a148       0x48 contiki-OrisenStamp.a(strformat.o)
 .text.fill_space
                0x0040a190       0x40 contiki-OrisenStamp.a(strformat.o)
 .text.format_str_v
                0x0040a1d0      0x760 contiki-OrisenStamp.a(strformat.o)
                0x0040a1d0                format_str_v
                0x0040a1d8                .real_start_offormat_str_v
 .text.adc_init
                0x0040a930       0x8c contiki-OrisenStamp.a(adc.o)
                0x0040a938                .real_start_ofadc_init
                0x0040a930                adc_init
 .text.gpio_data_get
                0x0040a9bc       0x34 contiki-OrisenStamp.a(gpio.o)
                0x0040a9bc                gpio_data_get
                0x0040a9c4                .real_start_ofgpio_data_get
 .text.gpio_select_function
                0x0040a9f0       0x30 contiki-OrisenStamp.a(gpio-util.o)
                0x0040a9f8                .real_start_ofgpio_select_function
                0x0040a9f0                gpio_select_function
 .text.gpio_reg_set
                0x0040aa20       0x20 contiki-OrisenStamp.a(gpio-util.o)
                0x0040aa20                gpio_reg_set
                0x0040aa28                .real_start_ofgpio_reg_set
 .text.gpio_reg_clear
                0x0040aa40       0x20 contiki-OrisenStamp.a(gpio-util.o)
                0x0040aa48                .real_start_ofgpio_reg_clear
                0x0040aa40                gpio_reg_clear
 .text.gpio_set_pad_dir
                0x0040aa60       0x44 contiki-OrisenStamp.a(gpio-util.o)
                0x0040aa60                gpio_set_pad_dir
                0x0040aa68                .real_start_ofgpio_set_pad_dir
 .text.i2c_force_reset
                0x0040aaa4       0x24 contiki-OrisenStamp.a(i2c.o)
                0x0040aaac                .real_start_ofi2c_force_reset
                0x0040aaa4                i2c_force_reset
 .text.i2c_busy
                0x0040aac8       0x1c contiki-OrisenStamp.a(i2c.o)
                0x0040aac8                i2c_busy
                0x0040aad0                .real_start_ofi2c_busy
 .text.i2c_transferred
                0x0040aae4       0x50 contiki-OrisenStamp.a(i2c.o)
                0x0040aae4                i2c_transferred
                0x0040aaec                .real_start_ofi2c_transferred
 .text.i2c_enable
                0x0040ab34       0x64 contiki-OrisenStamp.a(i2c.o)
                0x0040ab3c                .real_start_ofi2c_enable
                0x0040ab34                i2c_enable
 .text.i2c_isr  0x0040ab98      0x114 contiki-OrisenStamp.a(i2c.o)
                0x0040aba0                .real_start_ofi2c_isr
                0x0040ab98                i2c_isr
 .text.i2c_transmitinit
                0x0040acac       0xc4 contiki-OrisenStamp.a(i2c.o)
                0x0040acac                i2c_transmitinit
                0x0040acb4                .real_start_ofi2c_transmitinit
 .text.i2c_receiveinit
                0x0040ad70       0xd0 contiki-OrisenStamp.a(i2c.o)
                0x0040ad70                i2c_receiveinit
                0x0040ad78                .real_start_ofi2c_receiveinit
 .text.free_packet
                0x0040ae40       0x64 contiki-OrisenStamp.a(maca.o)
                0x0040ae40                free_packet
                0x0040ae48                .real_start_offree_packet
 .text.get_free_packet
                0x0040aea4       0x54 contiki-OrisenStamp.a(maca.o)
                0x0040aea4                get_free_packet
                0x0040aeac                .real_start_ofget_free_packet
 .text.post_receive
                0x0040aef8       0xbc contiki-OrisenStamp.a(maca.o)
                0x0040aef8                post_receive
                0x0040af00                .real_start_ofpost_receive
 .text.rx_packet
                0x0040afb4       0x54 contiki-OrisenStamp.a(maca.o)
                0x0040afbc                .real_start_ofrx_packet
                0x0040afb4                rx_packet
 .text.post_tx  0x0040b008       0xdc contiki-OrisenStamp.a(maca.o)
                0x0040b008                post_tx
                0x0040b010                .real_start_ofpost_tx
 .text.tx_packet
                0x0040b0e4       0x98 contiki-OrisenStamp.a(maca.o)
                0x0040b0ec                .real_start_oftx_packet
                0x0040b0e4                tx_packet
 .text.free_all_packets
                0x0040b17c       0x94 contiki-OrisenStamp.a(maca.o)
                0x0040b184                .real_start_offree_all_packets
                0x0040b17c                free_all_packets
 .text.free_tx_head
                0x0040b210       0x64 contiki-OrisenStamp.a(maca.o)
                0x0040b210                free_tx_head
                0x0040b218                .real_start_offree_tx_head
 .text.add_to_rx
                0x0040b274       0x70 contiki-OrisenStamp.a(maca.o)
                0x0040b27c                .real_start_ofadd_to_rx
                0x0040b274                add_to_rx
 .text.insert_at_rx_head
                0x0040b2e4       0x70 contiki-OrisenStamp.a(maca.o)
                0x0040b2ec                .real_start_ofinsert_at_rx_head
                0x0040b2e4                insert_at_rx_head
 .text.init_phy
                0x0040b354       0x68 contiki-OrisenStamp.a(maca.o)
                0x0040b35c                .real_start_ofinit_phy
                0x0040b354                init_phy
 .text.reset_maca
                0x0040b3bc       0x5c contiki-OrisenStamp.a(maca.o)
                0x0040b3bc                reset_maca
                0x0040b3c4                .real_start_ofreset_maca
 .text.flyback_init
                0x0040b418       0x3c contiki-OrisenStamp.a(maca.o)
                0x0040b418                flyback_init
                0x0040b420                .real_start_offlyback_init
 .text.get_ctov
                0x0040b454       0x24 contiki-OrisenStamp.a(maca.o)
                0x0040b45c                .real_start_ofget_ctov
                0x0040b454                get_ctov
 .text.set_power
                0x0040b478       0x78 contiki-OrisenStamp.a(maca.o)
                0x0040b478                set_power
                0x0040b480                .real_start_ofset_power
 .text.set_channel
                0x0040b4f0       0xc8 contiki-OrisenStamp.a(maca.o)
                0x0040b4f0                set_channel
                0x0040b4f8                .real_start_ofset_channel
 .text.exec_init_entry
                0x0040b5b8       0x88 contiki-OrisenStamp.a(maca.o)
                0x0040b5b8                exec_init_entry
                0x0040b5c0                .real_start_ofexec_init_entry
 .text.init_from_flash
                0x0040b640       0xe0 contiki-OrisenStamp.a(maca.o)
                0x0040b648                .real_start_ofinit_from_flash
                0x0040b640                init_from_flash
 .text.radio_init
                0x0040b720      0x218 contiki-OrisenStamp.a(maca.o)
                0x0040b728                .real_start_ofradio_init
                0x0040b720                radio_init
 .text.maca_init
                0x0040b938       0xbc contiki-OrisenStamp.a(maca.o)
                0x0040b940                .real_start_ofmaca_init
                0x0040b938                maca_init
 .text.ResumeMACASync
                0x0040b9f4       0xe0 contiki-OrisenStamp.a(maca.o)
                0x0040b9f4                ResumeMACASync
                0x0040b9fc                .real_start_ofResumeMACASync
 .text.decode_status
                0x0040bad4       0x48 contiki-OrisenStamp.a(maca.o)
                0x0040bad4                decode_status
                0x0040badc                .real_start_ofdecode_status
 .text.check_maca
                0x0040bb1c       0xc8 contiki-OrisenStamp.a(maca.o)
                0x0040bb1c                check_maca
                0x0040bb24                .real_start_ofcheck_maca
 .text.maca_isr
                0x0040bbe4      0x1dc contiki-OrisenStamp.a(maca.o)
                0x0040bbec                .real_start_ofmaca_isr
                0x0040bbe4                maca_isr
 .text.uart1_isr
                0x0040bdc0       0xc8 contiki-OrisenStamp.a(uart1.o)
                0x0040bdc0                uart1_isr
                0x0040bdc8                .real_start_ofuart1_isr
 .text.uart1_putc
                0x0040be88       0xa8 contiki-OrisenStamp.a(uart1.o)
                0x0040be90                .real_start_ofuart1_putc
                0x0040be88                uart1_putc
 .text.uart1_getc
                0x0040bf30       0x64 contiki-OrisenStamp.a(uart1.o)
                0x0040bf30                uart1_getc
                0x0040bf38                .real_start_ofuart1_getc
 .text.uart2_putc
                0x0040bf94       0xa8 contiki-OrisenStamp.a(uart2.o)
                0x0040bf9c                .real_start_ofuart2_putc
                0x0040bf94                uart2_putc
 .text.uart2_isr
                0x0040c03c       0x9c contiki-OrisenStamp.a(uart2.o)
                0x0040c03c                uart2_isr
                0x0040c044                .real_start_ofuart2_isr
 .text.default_vreg_init
                0x0040c0d8       0x4c contiki-OrisenStamp.a(default_lowleve)
                0x0040c0e0                .real_start_ofdefault_vreg_init
                0x0040c0d8                default_vreg_init
 .text.uart1_init
                0x0040c124       0xdc contiki-OrisenStamp.a(default_lowleve)
                0x0040c124                uart1_init
                0x0040c12c                .real_start_ofuart1_init
 .text.uart2_init
                0x0040c200       0xd0 contiki-OrisenStamp.a(default_lowleve)
                0x0040c200                uart2_init
                0x0040c208                .real_start_ofuart2_init
 .text.sent_by_broadcast
                0x0040c2d0       0x18 contiki-OrisenStamp.a(unicast.o)
 .text.unicast_send
                0x0040c2e8       0x34 contiki-OrisenStamp.a(unicast.o)
                0x0040c2e8                unicast_send
                0x0040c2f0                .real_start_ofunicast_send
 .text.unicast_close
                0x0040c31c       0x20 contiki-OrisenStamp.a(unicast.o)
                0x0040c31c                unicast_close
                0x0040c324                .real_start_ofunicast_close
 .text.unicast_open
                0x0040c33c       0x40 contiki-OrisenStamp.a(unicast.o)
                0x0040c33c                unicast_open
                0x0040c344                .real_start_ofunicast_open
 .text.recv_from_broadcast
                0x0040c37c       0x38 contiki-OrisenStamp.a(unicast.o)
 .text.sent     0x0040c3b4        0x4 contiki-OrisenStamp.a(ipolite.o)
 .text.ipolite_send
                0x0040c3b8       0xa4 contiki-OrisenStamp.a(ipolite.o)
                0x0040c3b8                ipolite_send
                0x0040c3c0                .real_start_ofipolite_send
 .text.send     0x0040c45c       0x48 contiki-OrisenStamp.a(ipolite.o)
 .text.ipolite_close
                0x0040c4a4       0x44 contiki-OrisenStamp.a(ipolite.o)
                0x0040c4a4                ipolite_close
                0x0040c4ac                .real_start_ofipolite_close
 .text.ipolite_open
                0x0040c4e8       0x30 contiki-OrisenStamp.a(ipolite.o)
                0x0040c4e8                ipolite_open
                0x0040c4f0                .real_start_ofipolite_open
 .text.recv     0x0040c518       0xcc contiki-OrisenStamp.a(ipolite.o)
 .text.sent     0x0040c5e4       0x18 contiki-OrisenStamp.a(netflood.o)
 .text.dropped  0x0040c5fc       0x18 contiki-OrisenStamp.a(netflood.o)
 .text.netflood_send
                0x0040c614       0x80 contiki-OrisenStamp.a(netflood.o)
                0x0040c61c                .real_start_ofnetflood_send
                0x0040c614                netflood_send
 .text.netflood_close
                0x0040c694       0x20 contiki-OrisenStamp.a(netflood.o)
                0x0040c694                netflood_close
                0x0040c69c                .real_start_ofnetflood_close
 .text.netflood_open
                0x0040c6b4       0x34 contiki-OrisenStamp.a(netflood.o)
                0x0040c6b4                netflood_open
                0x0040c6bc                .real_start_ofnetflood_open
 .text.recv_from_ipolite
                0x0040c6e8      0x118 contiki-OrisenStamp.a(netflood.o)
 .text.packetbuf_set_attr
                0x0040c800       0x10 contiki-OrisenStamp.a(multihop.o)
 .text.packetbuf_addr
                0x0040c810       0x10 contiki-OrisenStamp.a(multihop.o)
 .text.multihop_resend
                0x0040c820       0x20 contiki-OrisenStamp.a(multihop.o)
                0x0040c820                multihop_resend
                0x0040c828                .real_start_ofmultihop_resend
 .text.packetbuf_set_addr
                0x0040c840       0x28 contiki-OrisenStamp.a(multihop.o)
 .text.multihop_send
                0x0040c868       0x84 contiki-OrisenStamp.a(multihop.o)
                0x0040c870                .real_start_ofmultihop_send
                0x0040c868                multihop_send
 .text.multihop_close
                0x0040c8ec       0x20 contiki-OrisenStamp.a(multihop.o)
                0x0040c8ec                multihop_close
                0x0040c8f4                .real_start_ofmultihop_close
 .text.multihop_open
                0x0040c90c       0x40 contiki-OrisenStamp.a(multihop.o)
                0x0040c914                .real_start_ofmultihop_open
                0x0040c90c                multihop_open
 .text.data_packet_received
                0x0040c94c       0xd0 contiki-OrisenStamp.a(multihop.o)
                0x0040c94c                data_packet_received
                0x0040c954                .real_start_ofdata_packet_received
 .text.set_timer
                0x0040ca1c       0x24 contiki-OrisenStamp.a(trickle.o)
 .text.send     0x0040ca40       0x2c contiki-OrisenStamp.a(trickle.o)
 .text.run_trickle
                0x0040ca6c       0xac contiki-OrisenStamp.a(trickle.o)
 .text.reset_interval
                0x0040cb18       0x20 contiki-OrisenStamp.a(trickle.o)
 .text.timer_callback
                0x0040cb38       0x18 contiki-OrisenStamp.a(trickle.o)
 .text.trickle_send
                0x0040cb50       0x64 contiki-OrisenStamp.a(trickle.o)
                0x0040cb58                .real_start_oftrickle_send
                0x0040cb50                trickle_send
 .text.recv     0x0040cbb4       0xb8 contiki-OrisenStamp.a(trickle.o)
 .text.trickle_close
                0x0040cc6c       0x38 contiki-OrisenStamp.a(trickle.o)
                0x0040cc6c                trickle_close
                0x0040cc74                .real_start_oftrickle_close
 .text.trickle_open
                0x0040cca4       0x50 contiki-OrisenStamp.a(trickle.o)
                0x0040ccac                .real_start_oftrickle_open
                0x0040cca4                trickle_open
 .text.addr_len
                0x0040ccf4       0x18 contiki-OrisenStamp.a(frame802154.o)
 .text.frame802154_parse
                0x0040cd0c      0x14c contiki-OrisenStamp.a(frame802154.o)
                0x0040cd14                .real_start_offrame802154_parse
                0x0040cd0c                frame802154_parse
 .text.field_len
                0x0040ce58       0x74 contiki-OrisenStamp.a(frame802154.o)
 .text.frame802154_create
                0x0040cecc      0x114 contiki-OrisenStamp.a(frame802154.o)
                0x0040cecc                frame802154_create
                0x0040ced4                .real_start_offrame802154_create
 .text.frame802154_hdrlen
                0x0040cfe0       0x40 contiki-OrisenStamp.a(frame802154.o)
                0x0040cfe0                frame802154_hdrlen
                0x0040cfe8                .real_start_offrame802154_hdrlen
 .text.timer_reset
                0x0040d020       0x14 contiki-OrisenStamp.a(timer.o)
                0x0040d028                .real_start_oftimer_reset
                0x0040d020                timer_reset
 .text.timer_expired
                0x0040d034       0x30 contiki-OrisenStamp.a(timer.o)
                0x0040d034                timer_expired
                0x0040d03c                .real_start_oftimer_expired
 .text.timer_set
                0x0040d064       0x24 contiki-OrisenStamp.a(timer.o)
                0x0040d06c                .real_start_oftimer_set
                0x0040d064                timer_set
 .text.dbg_send_bytes
                0x0040d088       0x3c contiki-OrisenStamp.a(debug-uart.o)
                0x0040d088                dbg_send_bytes
                0x0040d090                .real_start_ofdbg_send_bytes
 .text.leds_arch_set
                0x0040d0c4       0x54 contiki-OrisenStamp.a(leds-arch.o)
                0x0040d0cc                .real_start_ofleds_arch_set
                0x0040d0c4                leds_arch_set
 .text.leds_arch_init
                0x0040d118       0x68 contiki-OrisenStamp.a(leds-arch.o)
                0x0040d118                leds_arch_init
                0x0040d120                .real_start_ofleds_arch_init
 .text          0x0040d180      0x114 /home/user/CodeSourcery/Sourcery_G++_Lite/bin/../lib/gcc/arm-none-eabi/4.3.2/libgcc.a(_udivsi3.o)
                0x0040d180                __udivsi3
                0x0040d180                __aeabi_uidiv
                0x0040d274                __aeabi_uidivmod
 .text          0x0040d294      0x148 /home/user/CodeSourcery/Sourcery_G++_Lite/bin/../lib/gcc/arm-none-eabi/4.3.2/libgcc.a(_divsi3.o)
                0x0040d294                __aeabi_idiv
                0x0040d294                __divsi3
                0x0040d3bc                __aeabi_idivmod
 .text          0x0040d3dc        0x4 /home/user/CodeSourcery/Sourcery_G++_Lite/bin/../lib/gcc/arm-none-eabi/4.3.2/libgcc.a(_dvmd_tls.o)
                0x0040d3dc                __aeabi_ldiv0
                0x0040d3dc                __aeabi_idiv0
 .text          0x0040d3e0       0x3c /home/user/CodeSourcery/Sourcery_G++_Lite/bin/../lib/gcc/arm-none-eabi/4.3.2/libgcc.a(_aeabi_uldivmod.o)
                0x0040d3e0                __aeabi_uldivmod
 .text          0x0040d41c       0x80 /home/user/CodeSourcery/Sourcery_G++_Lite/bin/../lib/gcc/arm-none-eabi/4.3.2/libgcc.a(bpabi.o)
                0x0040d41c                __gnu_uldivmod_helper
                0x0040d45c                __gnu_ldivmod_helper
 .text          0x0040d49c      0x56c /home/user/CodeSourcery/Sourcery_G++_Lite/bin/../lib/gcc/arm-none-eabi/4.3.2/libgcc.a(_divdi3.o)
                0x0040d49c                __divdi3
 .text          0x0040da08      0x4fc /home/user/CodeSourcery/Sourcery_G++_Lite/bin/../lib/gcc/arm-none-eabi/4.3.2/libgcc.a(_udivdi3.o)
                0x0040da08                __udivdi3
 .text          0x0040df04       0xac /home/user/CodeSourcery/Sourcery_G++_Lite/bin/../lib/gcc/arm-none-eabi/4.3.2/../../../../arm-none-eabi/lib/libc.a(lib_a-memcmp.o)
                0x0040df04                memcmp
 .text          0x0040dfb0       0xfc /home/user/CodeSourcery/Sourcery_G++_Lite/bin/../lib/gcc/arm-none-eabi/4.3.2/../../../../arm-none-eabi/lib/libc.a(lib_a-memcpy.o)
                0x0040dfb0                memcpy
 .text          0x0040e0ac       0xd0 /home/user/CodeSourcery/Sourcery_G++_Lite/bin/../lib/gcc/arm-none-eabi/4.3.2/../../../../arm-none-eabi/lib/libc.a(lib_a-memset.o)
                0x0040e0ac                memset
 .text          0x0040e17c      0x134 /home/user/CodeSourcery/Sourcery_G++_Lite/bin/../lib/gcc/arm-none-eabi/4.3.2/../../../../arm-none-eabi/lib/libc.a(lib_a-strchr.o)
                0x0040e17c                strchr
 .text          0x0040e2b0       0xe8 /home/user/CodeSourcery/Sourcery_G++_Lite/bin/../lib/gcc/arm-none-eabi/4.3.2/../../../../arm-none-eabi/lib/libc.a(lib_a-strcmp.o)
                0x0040e2b0                strcmp
 .text          0x0040e398       0x9c /home/user/CodeSourcery/Sourcery_G++_Lite/bin/../lib/gcc/arm-none-eabi/4.3.2/../../../../arm-none-eabi/lib/libc.a(lib_a-strlen.o)
                0x0040e398                strlen
 .text          0x0040e434      0x144 /home/user/CodeSourcery/Sourcery_G++_Lite/bin/../lib/gcc/arm-none-eabi/4.3.2/../../../../arm-none-eabi/lib/libc.a(lib_a-strncmp.o)
                0x0040e434                strncmp
 .text          0x0040e578      0x10c /home/user/CodeSourcery/Sourcery_G++_Lite/bin/../lib/gcc/arm-none-eabi/4.3.2/../../../../arm-none-eabi/lib/libc.a(lib_a-strncpy.o)
                0x0040e578                strncpy
 .text          0x0040e684      0x878 /home/user/CodeSourcery/Sourcery_G++_Lite/bin/../lib/gcc/arm-none-eabi/4.3.2/../../../../arm-none-eabi/lib/libc.a(lib_a-strstr.o)
                0x0040eb60                strstr
 .text          0x0040eefc      0x118 /home/user/CodeSourcery/Sourcery_G++_Lite/bin/../lib/gcc/arm-none-eabi/4.3.2/../../../../arm-none-eabi/lib/libc.a(lib_a-memchr.o)
                0x0040eefc                memchr
 *(.gnu.warning)
 *(.glue_7t)
 .glue_7t       0x0040f014        0x0 boot.co
 .glue_7t       0x0040f014        0x0 obj_OrisenStamp/commands.o
 .glue_7t       0x0040f014        0x0 obj_OrisenStamp/uart2_handler.o
 .glue_7t       0x0040f014        0x0 obj_OrisenStamp/mesh_my.o
 .glue_7t       0x0040f014        0x0 obj_OrisenStamp/rudolph1_my.o
 .glue_7t       0x0040f014        0x0 obj_OrisenStamp/settings_read.o
 .glue_7t       0x0040f014        0x0 obj_OrisenStamp/uarts_test.o
 .glue_7t       0x0040f014        0x0 obj_OrisenStamp/contiki-stamp-main.o
 .glue_7t       0x0040f014        0x0 obj_OrisenStamp/start.o
 .glue_7t       0x0040f014        0x0 contiki-OrisenStamp.a(rimeaddr.o)
 .glue_7t       0x0040f014        0x0 contiki-OrisenStamp.a(rime.o)
 .glue_7t       0x0040f014        0x0 contiki-OrisenStamp.a(rimestats.o)
 .glue_7t       0x0040f014        0x0 contiki-OrisenStamp.a(announcement.o)
 .glue_7t       0x0040f014        0x0 contiki-OrisenStamp.a(broadcast-annou)
 .glue_7t       0x0040f014        0x0 contiki-OrisenStamp.a(broadcast.o)
 .glue_7t       0x0040f014        0x0 contiki-OrisenStamp.a(abc.o)
 .glue_7t       0x0040f014        0x0 contiki-OrisenStamp.a(mesh.o)
 .glue_7t       0x0040f014        0x0 contiki-OrisenStamp.a(route.o)
 .glue_7t       0x0040f014        0x0 contiki-OrisenStamp.a(route-discovery)
 .glue_7t       0x0040f014        0x0 contiki-OrisenStamp.a(rudolph1.o)
 .glue_7t       0x0040f014        0x0 contiki-OrisenStamp.a(chameleon.o)
 .glue_7t       0x0040f014        0x0 contiki-OrisenStamp.a(channel.o)
 .glue_7t       0x0040f014        0x0 contiki-OrisenStamp.a(chameleon-bitop)
 .glue_7t       0x0040f014        0x0 contiki-OrisenStamp.a(nullrdc.o)
 .glue_7t       0x0040f014        0x0 contiki-OrisenStamp.a(mac.o)
 .glue_7t       0x0040f014        0x0 contiki-OrisenStamp.a(framer-802154.o)
 .glue_7t       0x0040f014        0x0 contiki-OrisenStamp.a(csma.o)
 .glue_7t       0x0040f014        0x0 contiki-OrisenStamp.a(process.o)
 .glue_7t       0x0040f014        0x0 contiki-OrisenStamp.a(autostart.o)
 .glue_7t       0x0040f014        0x0 contiki-OrisenStamp.a(serial-line.o)
 .glue_7t       0x0040f014        0x0 contiki-OrisenStamp.a(memb.o)
 .glue_7t       0x0040f014        0x0 contiki-OrisenStamp.a(list.o)
 .glue_7t       0x0040f014        0x0 contiki-OrisenStamp.a(etimer.o)
 .glue_7t       0x0040f014        0x0 contiki-OrisenStamp.a(ctimer.o)
 .glue_7t       0x0040f014        0x0 contiki-OrisenStamp.a(random.o)
 .glue_7t       0x0040f014        0x0 contiki-OrisenStamp.a(ringbuf.o)
 .glue_7t       0x0040f014        0x0 contiki-OrisenStamp.a(packetbuf.o)
 .glue_7t       0x0040f014        0x0 contiki-OrisenStamp.a(queuebuf.o)
 .glue_7t       0x0040f014        0x0 contiki-OrisenStamp.a(serial-shell.o)
 .glue_7t       0x0040f014        0x0 contiki-OrisenStamp.a(shell.o)
 .glue_7t       0x0040f014        0x0 contiki-OrisenStamp.a(shell-reboot.o)
 .glue_7t       0x0040f014        0x0 contiki-OrisenStamp.a(shell-file.o)
 .glue_7t       0x0040f014        0x0 contiki-OrisenStamp.a(clock.o)
 .glue_7t       0x0040f014        0x0 contiki-OrisenStamp.a(button-sensor.o)
 .glue_7t       0x0040f014        0x0 contiki-OrisenStamp.a(sensors.o)
 .glue_7t       0x0040f014        0x0 contiki-OrisenStamp.a(uSDcard.o)
 .glue_7t       0x0040f014        0x0 contiki-OrisenStamp.a(ff.o)
 .glue_7t       0x0040f014        0x0 contiki-OrisenStamp.a(diskio.o)
 .glue_7t       0x0040f014        0x0 contiki-OrisenStamp.a(cfs-fat.o)
 .glue_7t       0x0040f014        0x0 contiki-OrisenStamp.a(RTC.o)
 .glue_7t       0x0040f014        0x0 contiki-OrisenStamp.a(kbi_events.o)
 .glue_7t       0x0040f014        0x0 contiki-OrisenStamp.a(io-pins.o)
 .glue_7t       0x0040f014        0x0 contiki-OrisenStamp.a(watchdog.o)
 .glue_7t       0x0040f014        0x0 contiki-OrisenStamp.a(contiki-crm.o)
 .glue_7t       0x0040f014        0x0 contiki-OrisenStamp.a(contiki-maca.o)
 .glue_7t       0x0040f014        0x0 contiki-OrisenStamp.a(contiki-misc.o)
 .glue_7t       0x0040f014        0x0 contiki-OrisenStamp.a(leds.o)
 .glue_7t       0x0040f014        0x0 contiki-OrisenStamp.a(contiki-uart.o)
 .glue_7t       0x0040f014        0x0 contiki-OrisenStamp.a(dbg-printf.o)
 .glue_7t       0x0040f014        0x0 contiki-OrisenStamp.a(dbg-sprintf.o)
 .glue_7t       0x0040f014        0x0 contiki-OrisenStamp.a(strformat.o)
 .glue_7t       0x0040f014        0x0 contiki-OrisenStamp.a(adc.o)
 .glue_7t       0x0040f014        0x0 contiki-OrisenStamp.a(gpio.o)
 .glue_7t       0x0040f014        0x0 contiki-OrisenStamp.a(gpio-util.o)
 .glue_7t       0x0040f014        0x0 contiki-OrisenStamp.a(i2c.o)
 .glue_7t       0x0040f014        0x0 contiki-OrisenStamp.a(maca.o)
 .glue_7t       0x0040f014        0x0 contiki-OrisenStamp.a(nvm.o)
 .glue_7t       0x0040f014        0x0 contiki-OrisenStamp.a(uart1.o)
 .glue_7t       0x0040f014        0x0 contiki-OrisenStamp.a(uart2.o)
 .glue_7t       0x0040f014        0x0 contiki-OrisenStamp.a(default_lowleve)
 .glue_7t       0x0040f014        0x0 contiki-OrisenStamp.a(isr.o)
 .glue_7t       0x0040f014        0x0 contiki-OrisenStamp.a(unicast.o)
 .glue_7t       0x0040f014        0x0 contiki-OrisenStamp.a(ipolite.o)
 .glue_7t       0x0040f014        0x0 contiki-OrisenStamp.a(netflood.o)
 .glue_7t       0x0040f014        0x0 contiki-OrisenStamp.a(multihop.o)
 .glue_7t       0x0040f014        0x0 contiki-OrisenStamp.a(trickle.o)
 .glue_7t       0x0040f014        0x0 contiki-OrisenStamp.a(frame802154.o)
 .glue_7t       0x0040f014        0x0 contiki-OrisenStamp.a(timer.o)
 .glue_7t       0x0040f014        0x0 contiki-OrisenStamp.a(debug-uart.o)
 .glue_7t       0x0040f014        0x0 contiki-OrisenStamp.a(leds-arch.o)
 .glue_7t       0x0040f014        0x0 /home/user/CodeSourcery/Sourcery_G++_Lite/bin/../lib/gcc/arm-none-eabi/4.3.2/libgcc.a(_udivsi3.o)
 .glue_7t       0x0040f014        0x0 /home/user/CodeSourcery/Sourcery_G++_Lite/bin/../lib/gcc/arm-none-eabi/4.3.2/libgcc.a(_divsi3.o)
 .glue_7t       0x0040f014        0x0 /home/user/CodeSourcery/Sourcery_G++_Lite/bin/../lib/gcc/arm-none-eabi/4.3.2/libgcc.a(_dvmd_tls.o)
 .glue_7t       0x0040f014        0x0 /home/user/CodeSourcery/Sourcery_G++_Lite/bin/../lib/gcc/arm-none-eabi/4.3.2/libgcc.a(_aeabi_uldivmod.o)
 .glue_7t       0x0040f014        0x0 /home/user/CodeSourcery/Sourcery_G++_Lite/bin/../lib/gcc/arm-none-eabi/4.3.2/libgcc.a(bpabi.o)
 .glue_7t       0x0040f014        0x0 /home/user/CodeSourcery/Sourcery_G++_Lite/bin/../lib/gcc/arm-none-eabi/4.3.2/libgcc.a(_divdi3.o)
 .glue_7t       0x0040f014        0x0 /home/user/CodeSourcery/Sourcery_G++_Lite/bin/../lib/gcc/arm-none-eabi/4.3.2/libgcc.a(_udivdi3.o)
 .glue_7t       0x0040f014        0x0 /home/user/CodeSourcery/Sourcery_G++_Lite/bin/../lib/gcc/arm-none-eabi/4.3.2/libgcc.a(_clz.o)
 .glue_7t       0x0040f014        0x0 /home/user/CodeSourcery/Sourcery_G++_Lite/bin/../lib/gcc/arm-none-eabi/4.3.2/../../../../arm-none-eabi/lib/libc.a(lib_a-ctype_.o)
 .glue_7t       0x0040f014        0x0 /home/user/CodeSourcery/Sourcery_G++_Lite/bin/../lib/gcc/arm-none-eabi/4.3.2/../../../../arm-none-eabi/lib/libc.a(lib_a-memcmp.o)
 .glue_7t       0x0040f014        0x0 /home/user/CodeSourcery/Sourcery_G++_Lite/bin/../lib/gcc/arm-none-eabi/4.3.2/../../../../arm-none-eabi/lib/libc.a(lib_a-memcpy.o)
 .glue_7t       0x0040f014        0x0 /home/user/CodeSourcery/Sourcery_G++_Lite/bin/../lib/gcc/arm-none-eabi/4.3.2/../../../../arm-none-eabi/lib/libc.a(lib_a-memset.o)
 .glue_7t       0x0040f014        0x0 /home/user/CodeSourcery/Sourcery_G++_Lite/bin/../lib/gcc/arm-none-eabi/4.3.2/../../../../arm-none-eabi/lib/libc.a(lib_a-strchr.o)
 .glue_7t       0x0040f014        0x0 /home/user/CodeSourcery/Sourcery_G++_Lite/bin/../lib/gcc/arm-none-eabi/4.3.2/../../../../arm-none-eabi/lib/libc.a(lib_a-strcmp.o)
 .glue_7t       0x0040f014        0x0 /home/user/CodeSourcery/Sourcery_G++_Lite/bin/../lib/gcc/arm-none-eabi/4.3.2/../../../../arm-none-eabi/lib/libc.a(lib_a-strlen.o)
 .glue_7t       0x0040f014        0x0 /home/user/CodeSourcery/Sourcery_G++_Lite/bin/../lib/gcc/arm-none-eabi/4.3.2/../../../../arm-none-eabi/lib/libc.a(lib_a-strncmp.o)
 .glue_7t       0x0040f014        0x0 /home/user/CodeSourcery/Sourcery_G++_Lite/bin/../lib/gcc/arm-none-eabi/4.3.2/../../../../arm-none-eabi/lib/libc.a(lib_a-strncpy.o)
 .glue_7t       0x0040f014        0x0 /home/user/CodeSourcery/Sourcery_G++_Lite/bin/../lib/gcc/arm-none-eabi/4.3.2/../../../../arm-none-eabi/lib/libc.a(lib_a-strstr.o)
 .glue_7t       0x0040f014        0x0 /home/user/CodeSourcery/Sourcery_G++_Lite/bin/../lib/gcc/arm-none-eabi/4.3.2/../../../../arm-none-eabi/lib/libc.a(lib_a-memchr.o)
 *(.glue_7)
 .glue_7        0x0040f014        0x0 boot.co
 .glue_7        0x0040f014        0x0 obj_OrisenStamp/commands.o
 .glue_7        0x0040f014        0x0 obj_OrisenStamp/uart2_handler.o
 .glue_7        0x0040f014        0x0 obj_OrisenStamp/mesh_my.o
 .glue_7        0x0040f014        0x0 obj_OrisenStamp/rudolph1_my.o
 .glue_7        0x0040f014        0x0 obj_OrisenStamp/settings_read.o
 .glue_7        0x0040f014        0x0 obj_OrisenStamp/uarts_test.o
 .glue_7        0x0040f014        0x0 obj_OrisenStamp/contiki-stamp-main.o
 .glue_7        0x0040f014        0x0 obj_OrisenStamp/start.o
 .glue_7        0x0040f014        0x0 contiki-OrisenStamp.a(rimeaddr.o)
 .glue_7        0x0040f014        0x0 contiki-OrisenStamp.a(rime.o)
 .glue_7        0x0040f014        0x0 contiki-OrisenStamp.a(rimestats.o)
 .glue_7        0x0040f014        0x0 contiki-OrisenStamp.a(announcement.o)
 .glue_7        0x0040f014        0x0 contiki-OrisenStamp.a(broadcast-annou)
 .glue_7        0x0040f014        0x0 contiki-OrisenStamp.a(broadcast.o)
 .glue_7        0x0040f014        0x0 contiki-OrisenStamp.a(abc.o)
 .glue_7        0x0040f014        0x0 contiki-OrisenStamp.a(mesh.o)
 .glue_7        0x0040f014        0x0 contiki-OrisenStamp.a(route.o)
 .glue_7        0x0040f014        0x0 contiki-OrisenStamp.a(route-discovery)
 .glue_7        0x0040f014        0x0 contiki-OrisenStamp.a(rudolph1.o)
 .glue_7        0x0040f014        0x0 contiki-OrisenStamp.a(chameleon.o)
 .glue_7        0x0040f014        0x0 contiki-OrisenStamp.a(channel.o)
 .glue_7        0x0040f014        0x0 contiki-OrisenStamp.a(chameleon-bitop)
 .glue_7        0x0040f014        0x0 contiki-OrisenStamp.a(nullrdc.o)
 .glue_7        0x0040f014        0x0 contiki-OrisenStamp.a(mac.o)
 .glue_7        0x0040f014        0x0 contiki-OrisenStamp.a(framer-802154.o)
 .glue_7        0x0040f014        0x0 contiki-OrisenStamp.a(csma.o)
 .glue_7        0x0040f014        0x0 contiki-OrisenStamp.a(process.o)
 .glue_7        0x0040f014        0x0 contiki-OrisenStamp.a(autostart.o)
 .glue_7        0x0040f014        0x0 contiki-OrisenStamp.a(serial-line.o)
 .glue_7        0x0040f014        0x0 contiki-OrisenStamp.a(memb.o)
 .glue_7        0x0040f014        0x0 contiki-OrisenStamp.a(list.o)
 .glue_7        0x0040f014        0x0 contiki-OrisenStamp.a(etimer.o)
 .glue_7        0x0040f014        0x0 contiki-OrisenStamp.a(ctimer.o)
 .glue_7        0x0040f014        0x0 contiki-OrisenStamp.a(random.o)
 .glue_7        0x0040f014        0x0 contiki-OrisenStamp.a(ringbuf.o)
 .glue_7        0x0040f014        0x0 contiki-OrisenStamp.a(packetbuf.o)
 .glue_7        0x0040f014        0x0 contiki-OrisenStamp.a(queuebuf.o)
 .glue_7        0x0040f014        0x0 contiki-OrisenStamp.a(serial-shell.o)
 .glue_7        0x0040f014        0x0 contiki-OrisenStamp.a(shell.o)
 .glue_7        0x0040f014        0x0 contiki-OrisenStamp.a(shell-reboot.o)
 .glue_7        0x0040f014        0x0 contiki-OrisenStamp.a(shell-file.o)
 .glue_7        0x0040f014        0x0 contiki-OrisenStamp.a(clock.o)
 .glue_7        0x0040f014        0x0 contiki-OrisenStamp.a(button-sensor.o)
 .glue_7        0x0040f014        0x0 contiki-OrisenStamp.a(sensors.o)
 .glue_7        0x0040f014        0x0 contiki-OrisenStamp.a(uSDcard.o)
 .glue_7        0x0040f014        0x0 contiki-OrisenStamp.a(ff.o)
 .glue_7        0x0040f014        0x0 contiki-OrisenStamp.a(diskio.o)
 .glue_7        0x0040f014        0x0 contiki-OrisenStamp.a(cfs-fat.o)
 .glue_7        0x0040f014        0x0 contiki-OrisenStamp.a(RTC.o)
 .glue_7        0x0040f014        0x0 contiki-OrisenStamp.a(kbi_events.o)
 .glue_7        0x0040f014        0x0 contiki-OrisenStamp.a(io-pins.o)
 .glue_7        0x0040f014        0x0 contiki-OrisenStamp.a(watchdog.o)
 .glue_7        0x0040f014        0x0 contiki-OrisenStamp.a(contiki-crm.o)
 .glue_7        0x0040f014        0x0 contiki-OrisenStamp.a(contiki-maca.o)
 .glue_7        0x0040f014        0x0 contiki-OrisenStamp.a(contiki-misc.o)
 .glue_7        0x0040f014        0x0 contiki-OrisenStamp.a(leds.o)
 .glue_7        0x0040f014        0x0 contiki-OrisenStamp.a(contiki-uart.o)
 .glue_7        0x0040f014        0x0 contiki-OrisenStamp.a(dbg-printf.o)
 .glue_7        0x0040f014        0x0 contiki-OrisenStamp.a(dbg-sprintf.o)
 .glue_7        0x0040f014        0x0 contiki-OrisenStamp.a(strformat.o)
 .glue_7        0x0040f014        0x0 contiki-OrisenStamp.a(adc.o)
 .glue_7        0x0040f014        0x0 contiki-OrisenStamp.a(gpio.o)
 .glue_7        0x0040f014        0x0 contiki-OrisenStamp.a(gpio-util.o)
 .glue_7        0x0040f014        0x0 contiki-OrisenStamp.a(i2c.o)
 .glue_7        0x0040f014        0x0 contiki-OrisenStamp.a(maca.o)
 .glue_7        0x0040f014        0x0 contiki-OrisenStamp.a(nvm.o)
 .glue_7        0x0040f014        0x0 contiki-OrisenStamp.a(uart1.o)
 .glue_7        0x0040f014        0x0 contiki-OrisenStamp.a(uart2.o)
 .glue_7        0x0040f014        0x0 contiki-OrisenStamp.a(default_lowleve)
 .glue_7        0x0040f014        0x0 contiki-OrisenStamp.a(isr.o)
 .glue_7        0x0040f014        0x0 contiki-OrisenStamp.a(unicast.o)
 .glue_7        0x0040f014        0x0 contiki-OrisenStamp.a(ipolite.o)
 .glue_7        0x0040f014        0x0 contiki-OrisenStamp.a(netflood.o)
 .glue_7        0x0040f014        0x0 contiki-OrisenStamp.a(multihop.o)
 .glue_7        0x0040f014        0x0 contiki-OrisenStamp.a(trickle.o)
 .glue_7        0x0040f014        0x0 contiki-OrisenStamp.a(frame802154.o)
 .glue_7        0x0040f014        0x0 contiki-OrisenStamp.a(timer.o)
 .glue_7        0x0040f014        0x0 contiki-OrisenStamp.a(debug-uart.o)
 .glue_7        0x0040f014        0x0 contiki-OrisenStamp.a(leds-arch.o)
 .glue_7        0x0040f014        0x0 /home/user/CodeSourcery/Sourcery_G++_Lite/bin/../lib/gcc/arm-none-eabi/4.3.2/libgcc.a(_udivsi3.o)
 .glue_7        0x0040f014        0x0 /home/user/CodeSourcery/Sourcery_G++_Lite/bin/../lib/gcc/arm-none-eabi/4.3.2/libgcc.a(_divsi3.o)
 .glue_7        0x0040f014        0x0 /home/user/CodeSourcery/Sourcery_G++_Lite/bin/../lib/gcc/arm-none-eabi/4.3.2/libgcc.a(_dvmd_tls.o)
 .glue_7        0x0040f014        0x0 /home/user/CodeSourcery/Sourcery_G++_Lite/bin/../lib/gcc/arm-none-eabi/4.3.2/libgcc.a(_aeabi_uldivmod.o)
 .glue_7        0x0040f014        0x0 /home/user/CodeSourcery/Sourcery_G++_Lite/bin/../lib/gcc/arm-none-eabi/4.3.2/libgcc.a(bpabi.o)
 .glue_7        0x0040f014        0x0 /home/user/CodeSourcery/Sourcery_G++_Lite/bin/../lib/gcc/arm-none-eabi/4.3.2/libgcc.a(_divdi3.o)
 .glue_7        0x0040f014        0x0 /home/user/CodeSourcery/Sourcery_G++_Lite/bin/../lib/gcc/arm-none-eabi/4.3.2/libgcc.a(_udivdi3.o)
 .glue_7        0x0040f014        0x0 /home/user/CodeSourcery/Sourcery_G++_Lite/bin/../lib/gcc/arm-none-eabi/4.3.2/libgcc.a(_clz.o)
 .glue_7        0x0040f014        0x0 /home/user/CodeSourcery/Sourcery_G++_Lite/bin/../lib/gcc/arm-none-eabi/4.3.2/../../../../arm-none-eabi/lib/libc.a(lib_a-ctype_.o)
 .glue_7        0x0040f014        0x0 /home/user/CodeSourcery/Sourcery_G++_Lite/bin/../lib/gcc/arm-none-eabi/4.3.2/../../../../arm-none-eabi/lib/libc.a(lib_a-memcmp.o)
 .glue_7        0x0040f014        0x0 /home/user/CodeSourcery/Sourcery_G++_Lite/bin/../lib/gcc/arm-none-eabi/4.3.2/../../../../arm-none-eabi/lib/libc.a(lib_a-memcpy.o)
 .glue_7        0x0040f014        0x0 /home/user/CodeSourcery/Sourcery_G++_Lite/bin/../lib/gcc/arm-none-eabi/4.3.2/../../../../arm-none-eabi/lib/libc.a(lib_a-memset.o)
 .glue_7        0x0040f014        0x0 /home/user/CodeSourcery/Sourcery_G++_Lite/bin/../lib/gcc/arm-none-eabi/4.3.2/../../../../arm-none-eabi/lib/libc.a(lib_a-strchr.o)
 .glue_7        0x0040f014        0x0 /home/user/CodeSourcery/Sourcery_G++_Lite/bin/../lib/gcc/arm-none-eabi/4.3.2/../../../../arm-none-eabi/lib/libc.a(lib_a-strcmp.o)
 .glue_7        0x0040f014        0x0 /home/user/CodeSourcery/Sourcery_G++_Lite/bin/../lib/gcc/arm-none-eabi/4.3.2/../../../../arm-none-eabi/lib/libc.a(lib_a-strlen.o)
 .glue_7        0x0040f014        0x0 /home/user/CodeSourcery/Sourcery_G++_Lite/bin/../lib/gcc/arm-none-eabi/4.3.2/../../../../arm-none-eabi/lib/libc.a(lib_a-strncmp.o)
 .glue_7        0x0040f014        0x0 /home/user/CodeSourcery/Sourcery_G++_Lite/bin/../lib/gcc/arm-none-eabi/4.3.2/../../../../arm-none-eabi/lib/libc.a(lib_a-strncpy.o)
 .glue_7        0x0040f014        0x0 /home/user/CodeSourcery/Sourcery_G++_Lite/bin/../lib/gcc/arm-none-eabi/4.3.2/../../../../arm-none-eabi/lib/libc.a(lib_a-strstr.o)
 .glue_7        0x0040f014        0x0 /home/user/CodeSourcery/Sourcery_G++_Lite/bin/../lib/gcc/arm-none-eabi/4.3.2/../../../../arm-none-eabi/lib/libc.a(lib_a-memchr.o)
 *(.vfp11_veneer)
 .vfp11_veneer  0x0040f014        0x0 boot.co
 .vfp11_veneer  0x0040f014        0x0 obj_OrisenStamp/commands.o
 .vfp11_veneer  0x0040f014        0x0 obj_OrisenStamp/uart2_handler.o
 .vfp11_veneer  0x0040f014        0x0 obj_OrisenStamp/mesh_my.o
 .vfp11_veneer  0x0040f014        0x0 obj_OrisenStamp/rudolph1_my.o
 .vfp11_veneer  0x0040f014        0x0 obj_OrisenStamp/settings_read.o
 .vfp11_veneer  0x0040f014        0x0 obj_OrisenStamp/uarts_test.o
 .vfp11_veneer  0x0040f014        0x0 obj_OrisenStamp/contiki-stamp-main.o
 .vfp11_veneer  0x0040f014        0x0 obj_OrisenStamp/start.o
 .vfp11_veneer  0x0040f014        0x0 contiki-OrisenStamp.a(rimeaddr.o)
 .vfp11_veneer  0x0040f014        0x0 contiki-OrisenStamp.a(rime.o)
 .vfp11_veneer  0x0040f014        0x0 contiki-OrisenStamp.a(rimestats.o)
 .vfp11_veneer  0x0040f014        0x0 contiki-OrisenStamp.a(announcement.o)
 .vfp11_veneer  0x0040f014        0x0 contiki-OrisenStamp.a(broadcast-annou)
 .vfp11_veneer  0x0040f014        0x0 contiki-OrisenStamp.a(broadcast.o)
 .vfp11_veneer  0x0040f014        0x0 contiki-OrisenStamp.a(abc.o)
 .vfp11_veneer  0x0040f014        0x0 contiki-OrisenStamp.a(mesh.o)
 .vfp11_veneer  0x0040f014        0x0 contiki-OrisenStamp.a(route.o)
 .vfp11_veneer  0x0040f014        0x0 contiki-OrisenStamp.a(route-discovery)
 .vfp11_veneer  0x0040f014        0x0 contiki-OrisenStamp.a(rudolph1.o)
 .vfp11_veneer  0x0040f014        0x0 contiki-OrisenStamp.a(chameleon.o)
 .vfp11_veneer  0x0040f014        0x0 contiki-OrisenStamp.a(channel.o)
 .vfp11_veneer  0x0040f014        0x0 contiki-OrisenStamp.a(chameleon-bitop)
 .vfp11_veneer  0x0040f014        0x0 contiki-OrisenStamp.a(nullrdc.o)
 .vfp11_veneer  0x0040f014        0x0 contiki-OrisenStamp.a(mac.o)
 .vfp11_veneer  0x0040f014        0x0 contiki-OrisenStamp.a(framer-802154.o)
 .vfp11_veneer  0x0040f014        0x0 contiki-OrisenStamp.a(csma.o)
 .vfp11_veneer  0x0040f014        0x0 contiki-OrisenStamp.a(process.o)
 .vfp11_veneer  0x0040f014        0x0 contiki-OrisenStamp.a(autostart.o)
 .vfp11_veneer  0x0040f014        0x0 contiki-OrisenStamp.a(serial-line.o)
 .vfp11_veneer  0x0040f014        0x0 contiki-OrisenStamp.a(memb.o)
 .vfp11_veneer  0x0040f014        0x0 contiki-OrisenStamp.a(list.o)
 .vfp11_veneer  0x0040f014        0x0 contiki-OrisenStamp.a(etimer.o)
 .vfp11_veneer  0x0040f014        0x0 contiki-OrisenStamp.a(ctimer.o)
 .vfp11_veneer  0x0040f014        0x0 contiki-OrisenStamp.a(random.o)
 .vfp11_veneer  0x0040f014        0x0 contiki-OrisenStamp.a(ringbuf.o)
 .vfp11_veneer  0x0040f014        0x0 contiki-OrisenStamp.a(packetbuf.o)
 .vfp11_veneer  0x0040f014        0x0 contiki-OrisenStamp.a(queuebuf.o)
 .vfp11_veneer  0x0040f014        0x0 contiki-OrisenStamp.a(serial-shell.o)
 .vfp11_veneer  0x0040f014        0x0 contiki-OrisenStamp.a(shell.o)
 .vfp11_veneer  0x0040f014        0x0 contiki-OrisenStamp.a(shell-reboot.o)
 .vfp11_veneer  0x0040f014        0x0 contiki-OrisenStamp.a(shell-file.o)
 .vfp11_veneer  0x0040f014        0x0 contiki-OrisenStamp.a(clock.o)
 .vfp11_veneer  0x0040f014        0x0 contiki-OrisenStamp.a(button-sensor.o)
 .vfp11_veneer  0x0040f014        0x0 contiki-OrisenStamp.a(sensors.o)
 .vfp11_veneer  0x0040f014        0x0 contiki-OrisenStamp.a(uSDcard.o)
 .vfp11_veneer  0x0040f014        0x0 contiki-OrisenStamp.a(ff.o)
 .vfp11_veneer  0x0040f014        0x0 contiki-OrisenStamp.a(diskio.o)
 .vfp11_veneer  0x0040f014        0x0 contiki-OrisenStamp.a(cfs-fat.o)
 .vfp11_veneer  0x0040f014        0x0 contiki-OrisenStamp.a(RTC.o)
 .vfp11_veneer  0x0040f014        0x0 contiki-OrisenStamp.a(kbi_events.o)
 .vfp11_veneer  0x0040f014        0x0 contiki-OrisenStamp.a(io-pins.o)
 .vfp11_veneer  0x0040f014        0x0 contiki-OrisenStamp.a(watchdog.o)
 .vfp11_veneer  0x0040f014        0x0 contiki-OrisenStamp.a(contiki-crm.o)
 .vfp11_veneer  0x0040f014        0x0 contiki-OrisenStamp.a(contiki-maca.o)
 .vfp11_veneer  0x0040f014        0x0 contiki-OrisenStamp.a(contiki-misc.o)
 .vfp11_veneer  0x0040f014        0x0 contiki-OrisenStamp.a(leds.o)
 .vfp11_veneer  0x0040f014        0x0 contiki-OrisenStamp.a(contiki-uart.o)
 .vfp11_veneer  0x0040f014        0x0 contiki-OrisenStamp.a(dbg-printf.o)
 .vfp11_veneer  0x0040f014        0x0 contiki-OrisenStamp.a(dbg-sprintf.o)
 .vfp11_veneer  0x0040f014        0x0 contiki-OrisenStamp.a(strformat.o)
 .vfp11_veneer  0x0040f014        0x0 contiki-OrisenStamp.a(adc.o)
 .vfp11_veneer  0x0040f014        0x0 contiki-OrisenStamp.a(gpio.o)
 .vfp11_veneer  0x0040f014        0x0 contiki-OrisenStamp.a(gpio-util.o)
 .vfp11_veneer  0x0040f014        0x0 contiki-OrisenStamp.a(i2c.o)
 .vfp11_veneer  0x0040f014        0x0 contiki-OrisenStamp.a(maca.o)
 .vfp11_veneer  0x0040f014        0x0 contiki-OrisenStamp.a(nvm.o)
 .vfp11_veneer  0x0040f014        0x0 contiki-OrisenStamp.a(uart1.o)
 .vfp11_veneer  0x0040f014        0x0 contiki-OrisenStamp.a(uart2.o)
 .vfp11_veneer  0x0040f014        0x0 contiki-OrisenStamp.a(default_lowleve)
 .vfp11_veneer  0x0040f014        0x0 contiki-OrisenStamp.a(isr.o)
 .vfp11_veneer  0x0040f014        0x0 contiki-OrisenStamp.a(unicast.o)
 .vfp11_veneer  0x0040f014        0x0 contiki-OrisenStamp.a(ipolite.o)
 .vfp11_veneer  0x0040f014        0x0 contiki-OrisenStamp.a(netflood.o)
 .vfp11_veneer  0x0040f014        0x0 contiki-OrisenStamp.a(multihop.o)
 .vfp11_veneer  0x0040f014        0x0 contiki-OrisenStamp.a(trickle.o)
 .vfp11_veneer  0x0040f014        0x0 contiki-OrisenStamp.a(frame802154.o)
 .vfp11_veneer  0x0040f014        0x0 contiki-OrisenStamp.a(timer.o)
 .vfp11_veneer  0x0040f014        0x0 contiki-OrisenStamp.a(debug-uart.o)
 .vfp11_veneer  0x0040f014        0x0 contiki-OrisenStamp.a(leds-arch.o)
 .vfp11_veneer  0x0040f014        0x0 /home/user/CodeSourcery/Sourcery_G++_Lite/bin/../lib/gcc/arm-none-eabi/4.3.2/libgcc.a(_udivsi3.o)
 .vfp11_veneer  0x0040f014        0x0 /home/user/CodeSourcery/Sourcery_G++_Lite/bin/../lib/gcc/arm-none-eabi/4.3.2/libgcc.a(_divsi3.o)
 .vfp11_veneer  0x0040f014        0x0 /home/user/CodeSourcery/Sourcery_G++_Lite/bin/../lib/gcc/arm-none-eabi/4.3.2/libgcc.a(_dvmd_tls.o)
 .vfp11_veneer  0x0040f014        0x0 /home/user/CodeSourcery/Sourcery_G++_Lite/bin/../lib/gcc/arm-none-eabi/4.3.2/libgcc.a(_aeabi_uldivmod.o)
 .vfp11_veneer  0x0040f014        0x0 /home/user/CodeSourcery/Sourcery_G++_Lite/bin/../lib/gcc/arm-none-eabi/4.3.2/libgcc.a(bpabi.o)
 .vfp11_veneer  0x0040f014        0x0 /home/user/CodeSourcery/Sourcery_G++_Lite/bin/../lib/gcc/arm-none-eabi/4.3.2/libgcc.a(_divdi3.o)
 .vfp11_veneer  0x0040f014        0x0 /home/user/CodeSourcery/Sourcery_G++_Lite/bin/../lib/gcc/arm-none-eabi/4.3.2/libgcc.a(_udivdi3.o)
 .vfp11_veneer  0x0040f014        0x0 /home/user/CodeSourcery/Sourcery_G++_Lite/bin/../lib/gcc/arm-none-eabi/4.3.2/libgcc.a(_clz.o)
 .vfp11_veneer  0x0040f014        0x0 /home/user/CodeSourcery/Sourcery_G++_Lite/bin/../lib/gcc/arm-none-eabi/4.3.2/../../../../arm-none-eabi/lib/libc.a(lib_a-ctype_.o)
 .vfp11_veneer  0x0040f014        0x0 /home/user/CodeSourcery/Sourcery_G++_Lite/bin/../lib/gcc/arm-none-eabi/4.3.2/../../../../arm-none-eabi/lib/libc.a(lib_a-memcmp.o)
 .vfp11_veneer  0x0040f014        0x0 /home/user/CodeSourcery/Sourcery_G++_Lite/bin/../lib/gcc/arm-none-eabi/4.3.2/../../../../arm-none-eabi/lib/libc.a(lib_a-memcpy.o)
 .vfp11_veneer  0x0040f014        0x0 /home/user/CodeSourcery/Sourcery_G++_Lite/bin/../lib/gcc/arm-none-eabi/4.3.2/../../../../arm-none-eabi/lib/libc.a(lib_a-memset.o)
 .vfp11_veneer  0x0040f014        0x0 /home/user/CodeSourcery/Sourcery_G++_Lite/bin/../lib/gcc/arm-none-eabi/4.3.2/../../../../arm-none-eabi/lib/libc.a(lib_a-strchr.o)
 .vfp11_veneer  0x0040f014        0x0 /home/user/CodeSourcery/Sourcery_G++_Lite/bin/../lib/gcc/arm-none-eabi/4.3.2/../../../../arm-none-eabi/lib/libc.a(lib_a-strcmp.o)
 .vfp11_veneer  0x0040f014        0x0 /home/user/CodeSourcery/Sourcery_G++_Lite/bin/../lib/gcc/arm-none-eabi/4.3.2/../../../../arm-none-eabi/lib/libc.a(lib_a-strlen.o)
 .vfp11_veneer  0x0040f014        0x0 /home/user/CodeSourcery/Sourcery_G++_Lite/bin/../lib/gcc/arm-none-eabi/4.3.2/../../../../arm-none-eabi/lib/libc.a(lib_a-strncmp.o)
 .vfp11_veneer  0x0040f014        0x0 /home/user/CodeSourcery/Sourcery_G++_Lite/bin/../lib/gcc/arm-none-eabi/4.3.2/../../../../arm-none-eabi/lib/libc.a(lib_a-strncpy.o)
 .vfp11_veneer  0x0040f014        0x0 /home/user/CodeSourcery/Sourcery_G++_Lite/bin/../lib/gcc/arm-none-eabi/4.3.2/../../../../arm-none-eabi/lib/libc.a(lib_a-strstr.o)
 .vfp11_veneer  0x0040f014        0x0 /home/user/CodeSourcery/Sourcery_G++_Lite/bin/../lib/gcc/arm-none-eabi/4.3.2/../../../../arm-none-eabi/lib/libc.a(lib_a-memchr.o)
 *(.v4_bx)
 .v4_bx         0x0040f014        0x0 boot.co
 .v4_bx         0x0040f014        0x0 obj_OrisenStamp/commands.o
 .v4_bx         0x0040f014        0x0 obj_OrisenStamp/uart2_handler.o
 .v4_bx         0x0040f014        0x0 obj_OrisenStamp/mesh_my.o
 .v4_bx         0x0040f014        0x0 obj_OrisenStamp/rudolph1_my.o
 .v4_bx         0x0040f014        0x0 obj_OrisenStamp/settings_read.o
 .v4_bx         0x0040f014        0x0 obj_OrisenStamp/uarts_test.o
 .v4_bx         0x0040f014        0x0 obj_OrisenStamp/contiki-stamp-main.o
 .v4_bx         0x0040f014        0x0 obj_OrisenStamp/start.o
 .v4_bx         0x0040f014        0x0 contiki-OrisenStamp.a(rimeaddr.o)
 .v4_bx         0x0040f014        0x0 contiki-OrisenStamp.a(rime.o)
 .v4_bx         0x0040f014        0x0 contiki-OrisenStamp.a(rimestats.o)
 .v4_bx         0x0040f014        0x0 contiki-OrisenStamp.a(announcement.o)
 .v4_bx         0x0040f014        0x0 contiki-OrisenStamp.a(broadcast-annou)
 .v4_bx         0x0040f014        0x0 contiki-OrisenStamp.a(broadcast.o)
 .v4_bx         0x0040f014        0x0 contiki-OrisenStamp.a(abc.o)
 .v4_bx         0x0040f014        0x0 contiki-OrisenStamp.a(mesh.o)
 .v4_bx         0x0040f014        0x0 contiki-OrisenStamp.a(route.o)
 .v4_bx         0x0040f014        0x0 contiki-OrisenStamp.a(route-discovery)
 .v4_bx         0x0040f014        0x0 contiki-OrisenStamp.a(rudolph1.o)
 .v4_bx         0x0040f014        0x0 contiki-OrisenStamp.a(chameleon.o)
 .v4_bx         0x0040f014        0x0 contiki-OrisenStamp.a(channel.o)
 .v4_bx         0x0040f014        0x0 contiki-OrisenStamp.a(chameleon-bitop)
 .v4_bx         0x0040f014        0x0 contiki-OrisenStamp.a(nullrdc.o)
 .v4_bx         0x0040f014        0x0 contiki-OrisenStamp.a(mac.o)
 .v4_bx         0x0040f014        0x0 contiki-OrisenStamp.a(framer-802154.o)
 .v4_bx         0x0040f014        0x0 contiki-OrisenStamp.a(csma.o)
 .v4_bx         0x0040f014        0x0 contiki-OrisenStamp.a(process.o)
 .v4_bx         0x0040f014        0x0 contiki-OrisenStamp.a(autostart.o)
 .v4_bx         0x0040f014        0x0 contiki-OrisenStamp.a(serial-line.o)
 .v4_bx         0x0040f014        0x0 contiki-OrisenStamp.a(memb.o)
 .v4_bx         0x0040f014        0x0 contiki-OrisenStamp.a(list.o)
 .v4_bx         0x0040f014        0x0 contiki-OrisenStamp.a(etimer.o)
 .v4_bx         0x0040f014        0x0 contiki-OrisenStamp.a(ctimer.o)
 .v4_bx         0x0040f014        0x0 contiki-OrisenStamp.a(random.o)
 .v4_bx         0x0040f014        0x0 contiki-OrisenStamp.a(ringbuf.o)
 .v4_bx         0x0040f014        0x0 contiki-OrisenStamp.a(packetbuf.o)
 .v4_bx         0x0040f014        0x0 contiki-OrisenStamp.a(queuebuf.o)
 .v4_bx         0x0040f014        0x0 contiki-OrisenStamp.a(serial-shell.o)
 .v4_bx         0x0040f014        0x0 contiki-OrisenStamp.a(shell.o)
 .v4_bx         0x0040f014        0x0 contiki-OrisenStamp.a(shell-reboot.o)
 .v4_bx         0x0040f014        0x0 contiki-OrisenStamp.a(shell-file.o)
 .v4_bx         0x0040f014        0x0 contiki-OrisenStamp.a(clock.o)
 .v4_bx         0x0040f014        0x0 contiki-OrisenStamp.a(button-sensor.o)
 .v4_bx         0x0040f014        0x0 contiki-OrisenStamp.a(sensors.o)
 .v4_bx         0x0040f014        0x0 contiki-OrisenStamp.a(uSDcard.o)
 .v4_bx         0x0040f014        0x0 contiki-OrisenStamp.a(ff.o)
 .v4_bx         0x0040f014        0x0 contiki-OrisenStamp.a(diskio.o)
 .v4_bx         0x0040f014        0x0 contiki-OrisenStamp.a(cfs-fat.o)
 .v4_bx         0x0040f014        0x0 contiki-OrisenStamp.a(RTC.o)
 .v4_bx         0x0040f014        0x0 contiki-OrisenStamp.a(kbi_events.o)
 .v4_bx         0x0040f014        0x0 contiki-OrisenStamp.a(io-pins.o)
 .v4_bx         0x0040f014        0x0 contiki-OrisenStamp.a(watchdog.o)
 .v4_bx         0x0040f014        0x0 contiki-OrisenStamp.a(contiki-crm.o)
 .v4_bx         0x0040f014        0x0 contiki-OrisenStamp.a(contiki-maca.o)
 .v4_bx         0x0040f014        0x0 contiki-OrisenStamp.a(contiki-misc.o)
 .v4_bx         0x0040f014        0x0 contiki-OrisenStamp.a(leds.o)
 .v4_bx         0x0040f014        0x0 contiki-OrisenStamp.a(contiki-uart.o)
 .v4_bx         0x0040f014        0x0 contiki-OrisenStamp.a(dbg-printf.o)
 .v4_bx         0x0040f014        0x0 contiki-OrisenStamp.a(dbg-sprintf.o)
 .v4_bx         0x0040f014        0x0 contiki-OrisenStamp.a(strformat.o)
 .v4_bx         0x0040f014        0x0 contiki-OrisenStamp.a(adc.o)
 .v4_bx         0x0040f014        0x0 contiki-OrisenStamp.a(gpio.o)
 .v4_bx         0x0040f014        0x0 contiki-OrisenStamp.a(gpio-util.o)
 .v4_bx         0x0040f014        0x0 contiki-OrisenStamp.a(i2c.o)
 .v4_bx         0x0040f014        0x0 contiki-OrisenStamp.a(maca.o)
 .v4_bx         0x0040f014        0x0 contiki-OrisenStamp.a(nvm.o)
 .v4_bx         0x0040f014        0x0 contiki-OrisenStamp.a(uart1.o)
 .v4_bx         0x0040f014        0x0 contiki-OrisenStamp.a(uart2.o)
 .v4_bx         0x0040f014        0x0 contiki-OrisenStamp.a(default_lowleve)
 .v4_bx         0x0040f014        0x0 contiki-OrisenStamp.a(isr.o)
 .v4_bx         0x0040f014        0x0 contiki-OrisenStamp.a(unicast.o)
 .v4_bx         0x0040f014        0x0 contiki-OrisenStamp.a(ipolite.o)
 .v4_bx         0x0040f014        0x0 contiki-OrisenStamp.a(netflood.o)
 .v4_bx         0x0040f014        0x0 contiki-OrisenStamp.a(multihop.o)
 .v4_bx         0x0040f014        0x0 contiki-OrisenStamp.a(trickle.o)
 .v4_bx         0x0040f014        0x0 contiki-OrisenStamp.a(frame802154.o)
 .v4_bx         0x0040f014        0x0 contiki-OrisenStamp.a(timer.o)
 .v4_bx         0x0040f014        0x0 contiki-OrisenStamp.a(debug-uart.o)
 .v4_bx         0x0040f014        0x0 contiki-OrisenStamp.a(leds-arch.o)
 .v4_bx         0x0040f014        0x0 /home/user/CodeSourcery/Sourcery_G++_Lite/bin/../lib/gcc/arm-none-eabi/4.3.2/libgcc.a(_udivsi3.o)
 .v4_bx         0x0040f014        0x0 /home/user/CodeSourcery/Sourcery_G++_Lite/bin/../lib/gcc/arm-none-eabi/4.3.2/libgcc.a(_divsi3.o)
 .v4_bx         0x0040f014        0x0 /home/user/CodeSourcery/Sourcery_G++_Lite/bin/../lib/gcc/arm-none-eabi/4.3.2/libgcc.a(_dvmd_tls.o)
 .v4_bx         0x0040f014        0x0 /home/user/CodeSourcery/Sourcery_G++_Lite/bin/../lib/gcc/arm-none-eabi/4.3.2/libgcc.a(_aeabi_uldivmod.o)
 .v4_bx         0x0040f014        0x0 /home/user/CodeSourcery/Sourcery_G++_Lite/bin/../lib/gcc/arm-none-eabi/4.3.2/libgcc.a(bpabi.o)
 .v4_bx         0x0040f014        0x0 /home/user/CodeSourcery/Sourcery_G++_Lite/bin/../lib/gcc/arm-none-eabi/4.3.2/libgcc.a(_divdi3.o)
 .v4_bx         0x0040f014        0x0 /home/user/CodeSourcery/Sourcery_G++_Lite/bin/../lib/gcc/arm-none-eabi/4.3.2/libgcc.a(_udivdi3.o)
 .v4_bx         0x0040f014        0x0 /home/user/CodeSourcery/Sourcery_G++_Lite/bin/../lib/gcc/arm-none-eabi/4.3.2/libgcc.a(_clz.o)
 .v4_bx         0x0040f014        0x0 /home/user/CodeSourcery/Sourcery_G++_Lite/bin/../lib/gcc/arm-none-eabi/4.3.2/../../../../arm-none-eabi/lib/libc.a(lib_a-ctype_.o)
 .v4_bx         0x0040f014        0x0 /home/user/CodeSourcery/Sourcery_G++_Lite/bin/../lib/gcc/arm-none-eabi/4.3.2/../../../../arm-none-eabi/lib/libc.a(lib_a-memcmp.o)
 .v4_bx         0x0040f014        0x0 /home/user/CodeSourcery/Sourcery_G++_Lite/bin/../lib/gcc/arm-none-eabi/4.3.2/../../../../arm-none-eabi/lib/libc.a(lib_a-memcpy.o)
 .v4_bx         0x0040f014        0x0 /home/user/CodeSourcery/Sourcery_G++_Lite/bin/../lib/gcc/arm-none-eabi/4.3.2/../../../../arm-none-eabi/lib/libc.a(lib_a-memset.o)
 .v4_bx         0x0040f014        0x0 /home/user/CodeSourcery/Sourcery_G++_Lite/bin/../lib/gcc/arm-none-eabi/4.3.2/../../../../arm-none-eabi/lib/libc.a(lib_a-strchr.o)
 .v4_bx         0x0040f014        0x0 /home/user/CodeSourcery/Sourcery_G++_Lite/bin/../lib/gcc/arm-none-eabi/4.3.2/../../../../arm-none-eabi/lib/libc.a(lib_a-strcmp.o)
 .v4_bx         0x0040f014        0x0 /home/user/CodeSourcery/Sourcery_G++_Lite/bin/../lib/gcc/arm-none-eabi/4.3.2/../../../../arm-none-eabi/lib/libc.a(lib_a-strlen.o)
 .v4_bx         0x0040f014        0x0 /home/user/CodeSourcery/Sourcery_G++_Lite/bin/../lib/gcc/arm-none-eabi/4.3.2/../../../../arm-none-eabi/lib/libc.a(lib_a-strncmp.o)
 .v4_bx         0x0040f014        0x0 /home/user/CodeSourcery/Sourcery_G++_Lite/bin/../lib/gcc/arm-none-eabi/4.3.2/../../../../arm-none-eabi/lib/libc.a(lib_a-strncpy.o)
 .v4_bx         0x0040f014        0x0 /home/user/CodeSourcery/Sourcery_G++_Lite/bin/../lib/gcc/arm-none-eabi/4.3.2/../../../../arm-none-eabi/lib/libc.a(lib_a-strstr.o)
 .v4_bx         0x0040f014        0x0 /home/user/CodeSourcery/Sourcery_G++_Lite/bin/../lib/gcc/arm-none-eabi/4.3.2/../../../../arm-none-eabi/lib/libc.a(lib_a-memchr.o)

.janus_2cc_veneer
                0x0040f014        0x0
 .janus_2cc_veneer
                0x0040f014        0x0 boot.co
 .janus_2cc_veneer
                0x0040f014        0x0 obj_OrisenStamp/commands.o
 .janus_2cc_veneer
                0x0040f014        0x0 obj_OrisenStamp/uart2_handler.o
 .janus_2cc_veneer
                0x0040f014        0x0 obj_OrisenStamp/mesh_my.o
 .janus_2cc_veneer
                0x0040f014        0x0 obj_OrisenStamp/rudolph1_my.o
 .janus_2cc_veneer
                0x0040f014        0x0 obj_OrisenStamp/settings_read.o
 .janus_2cc_veneer
                0x0040f014        0x0 obj_OrisenStamp/uarts_test.o
 .janus_2cc_veneer
                0x0040f014        0x0 obj_OrisenStamp/contiki-stamp-main.o
 .janus_2cc_veneer
                0x0040f014        0x0 obj_OrisenStamp/start.o
 .janus_2cc_veneer
                0x0040f014        0x0 contiki-OrisenStamp.a(rimeaddr.o)
 .janus_2cc_veneer
                0x0040f014        0x0 contiki-OrisenStamp.a(rime.o)
 .janus_2cc_veneer
                0x0040f014        0x0 contiki-OrisenStamp.a(rimestats.o)
 .janus_2cc_veneer
                0x0040f014        0x0 contiki-OrisenStamp.a(announcement.o)
 .janus_2cc_veneer
                0x0040f014        0x0 contiki-OrisenStamp.a(broadcast-annou)
 .janus_2cc_veneer
                0x0040f014        0x0 contiki-OrisenStamp.a(broadcast.o)
 .janus_2cc_veneer
                0x0040f014        0x0 contiki-OrisenStamp.a(abc.o)
 .janus_2cc_veneer
                0x0040f014        0x0 contiki-OrisenStamp.a(mesh.o)
 .janus_2cc_veneer
                0x0040f014        0x0 contiki-OrisenStamp.a(route.o)
 .janus_2cc_veneer
                0x0040f014        0x0 contiki-OrisenStamp.a(route-discovery)
 .janus_2cc_veneer
                0x0040f014        0x0 contiki-OrisenStamp.a(rudolph1.o)
 .janus_2cc_veneer
                0x0040f014        0x0 contiki-OrisenStamp.a(chameleon.o)
 .janus_2cc_veneer
                0x0040f014        0x0 contiki-OrisenStamp.a(channel.o)
 .janus_2cc_veneer
                0x0040f014        0x0 contiki-OrisenStamp.a(chameleon-bitop)
 .janus_2cc_veneer
                0x0040f014        0x0 contiki-OrisenStamp.a(nullrdc.o)
 .janus_2cc_veneer
                0x0040f014        0x0 contiki-OrisenStamp.a(mac.o)
 .janus_2cc_veneer
                0x0040f014        0x0 contiki-OrisenStamp.a(framer-802154.o)
 .janus_2cc_veneer
                0x0040f014        0x0 contiki-OrisenStamp.a(csma.o)
 .janus_2cc_veneer
                0x0040f014        0x0 contiki-OrisenStamp.a(process.o)
 .janus_2cc_veneer
                0x0040f014        0x0 contiki-OrisenStamp.a(autostart.o)
 .janus_2cc_veneer
                0x0040f014        0x0 contiki-OrisenStamp.a(serial-line.o)
 .janus_2cc_veneer
                0x0040f014        0x0 contiki-OrisenStamp.a(memb.o)
 .janus_2cc_veneer
                0x0040f014        0x0 contiki-OrisenStamp.a(list.o)
 .janus_2cc_veneer
                0x0040f014        0x0 contiki-OrisenStamp.a(etimer.o)
 .janus_2cc_veneer
                0x0040f014        0x0 contiki-OrisenStamp.a(ctimer.o)
 .janus_2cc_veneer
                0x0040f014        0x0 contiki-OrisenStamp.a(random.o)
 .janus_2cc_veneer
                0x0040f014        0x0 contiki-OrisenStamp.a(ringbuf.o)
 .janus_2cc_veneer
                0x0040f014        0x0 contiki-OrisenStamp.a(packetbuf.o)
 .janus_2cc_veneer
                0x0040f014        0x0 contiki-OrisenStamp.a(queuebuf.o)
 .janus_2cc_veneer
                0x0040f014        0x0 contiki-OrisenStamp.a(serial-shell.o)
 .janus_2cc_veneer
                0x0040f014        0x0 contiki-OrisenStamp.a(shell.o)
 .janus_2cc_veneer
                0x0040f014        0x0 contiki-OrisenStamp.a(shell-reboot.o)
 .janus_2cc_veneer
                0x0040f014        0x0 contiki-OrisenStamp.a(shell-file.o)
 .janus_2cc_veneer
                0x0040f014        0x0 contiki-OrisenStamp.a(clock.o)
 .janus_2cc_veneer
                0x0040f014        0x0 contiki-OrisenStamp.a(button-sensor.o)
 .janus_2cc_veneer
                0x0040f014        0x0 contiki-OrisenStamp.a(sensors.o)
 .janus_2cc_veneer
                0x0040f014        0x0 contiki-OrisenStamp.a(uSDcard.o)
 .janus_2cc_veneer
                0x0040f014        0x0 contiki-OrisenStamp.a(ff.o)
 .janus_2cc_veneer
                0x0040f014        0x0 contiki-OrisenStamp.a(diskio.o)
 .janus_2cc_veneer
                0x0040f014        0x0 contiki-OrisenStamp.a(cfs-fat.o)
 .janus_2cc_veneer
                0x0040f014        0x0 contiki-OrisenStamp.a(RTC.o)
 .janus_2cc_veneer
                0x0040f014        0x0 contiki-OrisenStamp.a(kbi_events.o)
 .janus_2cc_veneer
                0x0040f014        0x0 contiki-OrisenStamp.a(io-pins.o)
 .janus_2cc_veneer
                0x0040f014        0x0 contiki-OrisenStamp.a(watchdog.o)
 .janus_2cc_veneer
                0x0040f014        0x0 contiki-OrisenStamp.a(contiki-crm.o)
 .janus_2cc_veneer
                0x0040f014        0x0 contiki-OrisenStamp.a(contiki-maca.o)
 .janus_2cc_veneer
                0x0040f014        0x0 contiki-OrisenStamp.a(contiki-misc.o)
 .janus_2cc_veneer
                0x0040f014        0x0 contiki-OrisenStamp.a(leds.o)
 .janus_2cc_veneer
                0x0040f014        0x0 contiki-OrisenStamp.a(contiki-uart.o)
 .janus_2cc_veneer
                0x0040f014        0x0 contiki-OrisenStamp.a(dbg-printf.o)
 .janus_2cc_veneer
                0x0040f014        0x0 contiki-OrisenStamp.a(dbg-sprintf.o)
 .janus_2cc_veneer
                0x0040f014        0x0 contiki-OrisenStamp.a(strformat.o)
 .janus_2cc_veneer
                0x0040f014        0x0 contiki-OrisenStamp.a(adc.o)
 .janus_2cc_veneer
                0x0040f014        0x0 contiki-OrisenStamp.a(gpio.o)
 .janus_2cc_veneer
                0x0040f014        0x0 contiki-OrisenStamp.a(gpio-util.o)
 .janus_2cc_veneer
                0x0040f014        0x0 contiki-OrisenStamp.a(i2c.o)
 .janus_2cc_veneer
                0x0040f014        0x0 contiki-OrisenStamp.a(maca.o)
 .janus_2cc_veneer
                0x0040f014        0x0 contiki-OrisenStamp.a(nvm.o)
 .janus_2cc_veneer
                0x0040f014        0x0 contiki-OrisenStamp.a(uart1.o)
 .janus_2cc_veneer
                0x0040f014        0x0 contiki-OrisenStamp.a(uart2.o)
 .janus_2cc_veneer
                0x0040f014        0x0 contiki-OrisenStamp.a(default_lowleve)
 .janus_2cc_veneer
                0x0040f014        0x0 contiki-OrisenStamp.a(isr.o)
 .janus_2cc_veneer
                0x0040f014        0x0 contiki-OrisenStamp.a(unicast.o)
 .janus_2cc_veneer
                0x0040f014        0x0 contiki-OrisenStamp.a(ipolite.o)
 .janus_2cc_veneer
                0x0040f014        0x0 contiki-OrisenStamp.a(netflood.o)
 .janus_2cc_veneer
                0x0040f014        0x0 contiki-OrisenStamp.a(multihop.o)
 .janus_2cc_veneer
                0x0040f014        0x0 contiki-OrisenStamp.a(trickle.o)
 .janus_2cc_veneer
                0x0040f014        0x0 contiki-OrisenStamp.a(frame802154.o)
 .janus_2cc_veneer
                0x0040f014        0x0 contiki-OrisenStamp.a(timer.o)
 .janus_2cc_veneer
                0x0040f014        0x0 contiki-OrisenStamp.a(debug-uart.o)
 .janus_2cc_veneer
                0x0040f014        0x0 contiki-OrisenStamp.a(leds-arch.o)
 .janus_2cc_veneer
                0x0040f014        0x0 /home/user/CodeSourcery/Sourcery_G++_Lite/bin/../lib/gcc/arm-none-eabi/4.3.2/libgcc.a(_udivsi3.o)
 .janus_2cc_veneer
                0x0040f014        0x0 /home/user/CodeSourcery/Sourcery_G++_Lite/bin/../lib/gcc/arm-none-eabi/4.3.2/libgcc.a(_divsi3.o)
 .janus_2cc_veneer
                0x0040f014        0x0 /home/user/CodeSourcery/Sourcery_G++_Lite/bin/../lib/gcc/arm-none-eabi/4.3.2/libgcc.a(_dvmd_tls.o)
 .janus_2cc_veneer
                0x0040f014        0x0 /home/user/CodeSourcery/Sourcery_G++_Lite/bin/../lib/gcc/arm-none-eabi/4.3.2/libgcc.a(_aeabi_uldivmod.o)
 .janus_2cc_veneer
                0x0040f014        0x0 /home/user/CodeSourcery/Sourcery_G++_Lite/bin/../lib/gcc/arm-none-eabi/4.3.2/libgcc.a(bpabi.o)
 .janus_2cc_veneer
                0x0040f014        0x0 /home/user/CodeSourcery/Sourcery_G++_Lite/bin/../lib/gcc/arm-none-eabi/4.3.2/libgcc.a(_divdi3.o)
 .janus_2cc_veneer
                0x0040f014        0x0 /home/user/CodeSourcery/Sourcery_G++_Lite/bin/../lib/gcc/arm-none-eabi/4.3.2/libgcc.a(_udivdi3.o)
 .janus_2cc_veneer
                0x0040f014        0x0 /home/user/CodeSourcery/Sourcery_G++_Lite/bin/../lib/gcc/arm-none-eabi/4.3.2/libgcc.a(_clz.o)
 .janus_2cc_veneer
                0x0040f014        0x0 /home/user/CodeSourcery/Sourcery_G++_Lite/bin/../lib/gcc/arm-none-eabi/4.3.2/../../../../arm-none-eabi/lib/libc.a(lib_a-ctype_.o)
 .janus_2cc_veneer
                0x0040f014        0x0 /home/user/CodeSourcery/Sourcery_G++_Lite/bin/../lib/gcc/arm-none-eabi/4.3.2/../../../../arm-none-eabi/lib/libc.a(lib_a-memcmp.o)
 .janus_2cc_veneer
                0x0040f014        0x0 /home/user/CodeSourcery/Sourcery_G++_Lite/bin/../lib/gcc/arm-none-eabi/4.3.2/../../../../arm-none-eabi/lib/libc.a(lib_a-memcpy.o)
 .janus_2cc_veneer
                0x0040f014        0x0 /home/user/CodeSourcery/Sourcery_G++_Lite/bin/../lib/gcc/arm-none-eabi/4.3.2/../../../../arm-none-eabi/lib/libc.a(lib_a-memset.o)
 .janus_2cc_veneer
                0x0040f014        0x0 /home/user/CodeSourcery/Sourcery_G++_Lite/bin/../lib/gcc/arm-none-eabi/4.3.2/../../../../arm-none-eabi/lib/libc.a(lib_a-strchr.o)
 .janus_2cc_veneer
                0x0040f014        0x0 /home/user/CodeSourcery/Sourcery_G++_Lite/bin/../lib/gcc/arm-none-eabi/4.3.2/../../../../arm-none-eabi/lib/libc.a(lib_a-strcmp.o)
 .janus_2cc_veneer
                0x0040f014        0x0 /home/user/CodeSourcery/Sourcery_G++_Lite/bin/../lib/gcc/arm-none-eabi/4.3.2/../../../../arm-none-eabi/lib/libc.a(lib_a-strlen.o)
 .janus_2cc_veneer
                0x0040f014        0x0 /home/user/CodeSourcery/Sourcery_G++_Lite/bin/../lib/gcc/arm-none-eabi/4.3.2/../../../../arm-none-eabi/lib/libc.a(lib_a-strncmp.o)
 .janus_2cc_veneer
                0x0040f014        0x0 /home/user/CodeSourcery/Sourcery_G++_Lite/bin/../lib/gcc/arm-none-eabi/4.3.2/../../../../arm-none-eabi/lib/libc.a(lib_a-strncpy.o)
 .janus_2cc_veneer
                0x0040f014        0x0 /home/user/CodeSourcery/Sourcery_G++_Lite/bin/../lib/gcc/arm-none-eabi/4.3.2/../../../../arm-none-eabi/lib/libc.a(lib_a-strstr.o)
 .janus_2cc_veneer
                0x0040f014        0x0 /home/user/CodeSourcery/Sourcery_G++_Lite/bin/../lib/gcc/arm-none-eabi/4.3.2/../../../../arm-none-eabi/lib/libc.a(lib_a-memchr.o)

.interp
 *(.interp)

.note.gnu.build-id
 *(.note.gnu.build-id)

.hash
 *(.hash)

.gnu.hash
 *(.gnu.hash)

.dynsym
 *(.dynsym)

.dynstr
 *(.dynstr)

.gnu.version
 *(.gnu.version)

.gnu.version_d
 *(.gnu.version_d)

.gnu.version_r
 *(.gnu.version_r)

.rel.dyn
 *(.rel.init)
 *(.rel.text .rel.text.* .rel.gnu.linkonce.t.*)
 *(.rel.fini)
 *(.rel.rodata .rel.rodata.* .rel.gnu.linkonce.r.*)
 *(.rel.data.rel.ro* .rel.gnu.linkonce.d.rel.ro.*)
 *(.rel.data .rel.data.* .rel.gnu.linkonce.d.*)
 *(.rel.tdata .rel.tdata.* .rel.gnu.linkonce.td.*)
 *(.rel.tbss .rel.tbss.* .rel.gnu.linkonce.tb.*)
 *(.rel.ctors)
 *(.rel.dtors)
 *(.rel.got)
 *(.rel.bss .rel.bss.* .rel.gnu.linkonce.b.*)

.rela.dyn
 *(.rela.init)
 *(.rela.text .rela.text.* .rela.gnu.linkonce.t.*)
 *(.rela.fini)
 *(.rela.rodata .rela.rodata.* .rela.gnu.linkonce.r.*)
 *(.rela.data .rela.data.* .rela.gnu.linkonce.d.*)
 *(.rela.tdata .rela.tdata.* .rela.gnu.linkonce.td.*)
 *(.rela.tbss .rela.tbss.* .rela.gnu.linkonce.tb.*)
 *(.rela.ctors)
 *(.rela.dtors)
 *(.rela.got)
 *(.rela.bss .rela.bss.* .rela.gnu.linkonce.b.*)

.rel.plt
 *(.rel.plt)

.rela.plt
 *(.rela.plt)

.init
 *(.init)

.plt
 *(.plt)

.fini
 *(.fini)
                0x0040f014                PROVIDE (__etext, .)
                0x0040f014                PROVIDE (_etext, .)
                0x0040f014                PROVIDE (etext, .)

.rodata         0x0040f014     0x1b4f
 *(.rodata .rodata.* .gnu.linkonce.r.*)
 .rodata.autostart_processes
                0x0040f014        0x8 boot.co
                0x0040f014                autostart_processes
 .rodata.str1.1
                0x0040f01c      0x145 boot.co
 .rodata.str1.1
                0x0040f161      0x5dd obj_OrisenStamp/commands.o
                                0x5ed (size before relaxing)
 .rodata.str1.1
                0x0040f73e      0x118 obj_OrisenStamp/uart2_handler.o
                                0x11b (size before relaxing)
 .rodata.str1.1
                0x0040f856       0x81 obj_OrisenStamp/mesh_my.o
                                 0x86 (size before relaxing)
 *fill*         0x0040f8d7        0x1 00
 .rodata.callbacks
                0x0040f8d8        0xc obj_OrisenStamp/mesh_my.o
 .rodata.str1.1
                0x0040f8e4       0xfd obj_OrisenStamp/rudolph1_my.o
                                 0xfe (size before relaxing)
 *fill*         0x0040f9e1        0x3 00
 .rodata.rudolph1_call
                0x0040f9e4        0x8 obj_OrisenStamp/rudolph1_my.o
 .rodata.str1.1
                0x0040f9ec       0xcf obj_OrisenStamp/settings_read.o
                                 0xe2 (size before relaxing)
 .rodata.str1.1
                0x0040fabb       0x35 obj_OrisenStamp/uarts_test.o
 .rodata.str1.1
                0x0040faf0       0xe7 obj_OrisenStamp/contiki-stamp-main.o
                                 0xf0 (size before relaxing)
 .rodata.addr_ff
                0x0040fbd7        0x2 obj_OrisenStamp/contiki-stamp-main.o
                0x0040fbd7                addr_ff
 .rodata.rimeaddr_null
                0x0040fbd9        0x2 contiki-OrisenStamp.a(rimeaddr.o)
                0x0040fbd9                rimeaddr_null
 .rodata.str1.1
                0x0040fbdb        0x5 contiki-OrisenStamp.a(rime.o)
 .rodata.rime_driver
                0x0040fbe0        0xc contiki-OrisenStamp.a(rime.o)
                0x0040fbe0                rime_driver
 .rodata.broadcast_callbacks
                0x0040fbec        0x8 contiki-OrisenStamp.a(broadcast-annou)
 .rodata.attributes
                0x0040fbf4        0x4 contiki-OrisenStamp.a(broadcast.o)
 .rodata.broadcast
                0x0040fbf8        0x8 contiki-OrisenStamp.a(broadcast.o)
 .rodata.attributes
                0x0040fc00        0x2 contiki-OrisenStamp.a(abc.o)
 *fill*         0x0040fc02        0x2 00
 .rodata.route_discovery_callbacks
                0x0040fc04        0x8 contiki-OrisenStamp.a(mesh.o)
 .rodata.data_callbacks
                0x0040fc0c        0x8 contiki-OrisenStamp.a(mesh.o)
 .rodata.rrep_callbacks
                0x0040fc14        0x8 contiki-OrisenStamp.a(route-discovery)
 .rodata.rreq_callbacks
                0x0040fc1c        0xc contiki-OrisenStamp.a(route-discovery)
 .rodata.ipolite
                0x0040fc28        0xc contiki-OrisenStamp.a(rudolph1.o)
 .rodata.trickle
                0x0040fc34        0x4 contiki-OrisenStamp.a(rudolph1.o)
 .rodata.chameleon_bitopt
                0x0040fc38        0xc contiki-OrisenStamp.a(chameleon-bitop)
                0x0040fc38                chameleon_bitopt
 .rodata.bitmask
                0x0040fc44        0x9 contiki-OrisenStamp.a(chameleon-bitop)
 .rodata.str1.1
                0x0040fc4d        0x8 contiki-OrisenStamp.a(nullrdc.o)
 *fill*         0x0040fc55        0x3 00
 .rodata.nullrdc_driver
                0x0040fc58       0x20 contiki-OrisenStamp.a(nullrdc.o)
                0x0040fc58                nullrdc_driver
 .rodata.framer_802154
                0x0040fc78        0x8 contiki-OrisenStamp.a(framer-802154.o)
                0x0040fc78                framer_802154
 .rodata.str1.1
                0x0040fc80        0x5 contiki-OrisenStamp.a(csma.o)
 *fill*         0x0040fc85        0x3 00
 .rodata.csma_driver
                0x0040fc88       0x1c contiki-OrisenStamp.a(csma.o)
                0x0040fc88                csma_driver
 .rodata.str1.1
                0x0040fca4        0xe contiki-OrisenStamp.a(serial-line.o)
 .rodata.str1.1
                0x0040fcb2        0xc contiki-OrisenStamp.a(etimer.o)
 .rodata.str1.1
                0x0040fcbe        0xf contiki-OrisenStamp.a(ctimer.o)
 *fill*         0x0040fccd        0x3 00
 .rodata.packetbuf
                0x0040fcd0        0x4 contiki-OrisenStamp.a(packetbuf.o)
 .rodata.str1.1
                0x0040fcd4       0x21 contiki-OrisenStamp.a(serial-shell.o)
                                 0x25 (size before relaxing)
 .rodata.str1.1
                0x0040fcf5      0x198 contiki-OrisenStamp.a(shell.o)
                                0x19e (size before relaxing)
 .rodata.str1.1
                0x0040fe8d       0x47 contiki-OrisenStamp.a(shell-reboot.o)
                                 0x48 (size before relaxing)
 .rodata.str1.1
                0x0040fed4      0x22a contiki-OrisenStamp.a(shell-file.o)
                                0x22d (size before relaxing)
 .rodata.str1.1
                0x004100fe        0x7 contiki-OrisenStamp.a(button-sensor.o)
 *fill*         0x00410105        0x3 00
 .rodata.button_sensor
                0x00410108       0x10 contiki-OrisenStamp.a(button-sensor.o)
                0x00410108                button_sensor
 .rodata.str1.1
                0x00410118        0x8 contiki-OrisenStamp.a(sensors.o)
 .rodata        0x00410120       0xd1 contiki-OrisenStamp.a(uSDcard.o)
 .rodata.str1.1
                0x004101f1       0xa0 contiki-OrisenStamp.a(uSDcard.o)
                                 0xa3 (size before relaxing)
 .rodata.excvt.1919
                0x00410291       0x80 contiki-OrisenStamp.a(ff.o)
 .rodata.str1.1
                0x00410311        0xf contiki-OrisenStamp.a(ff.o)
 .rodata.disk_ioctl
                0x00410320       0x3c contiki-OrisenStamp.a(diskio.o)
 .rodata        0x0041035c       0xd1 contiki-OrisenStamp.a(cfs-fat.o)
 .rodata.str1.1
                0x0041042d       0x2d contiki-OrisenStamp.a(cfs-fat.o)
 .rodata.C.13.4649
                0x0041045a        0x2 contiki-OrisenStamp.a(RTC.o)
 .rodata.str1.1
                0x0041045c        0xc contiki-OrisenStamp.a(RTC.o)
 .rodata.str1.1
                0x00410468       0x1a contiki-OrisenStamp.a(kbi_events.o)
 *fill*         0x00410482        0x2 00
 .rodata.ioPins_configurePin
                0x00410484       0x40 contiki-OrisenStamp.a(io-pins.o)
 .rodata.initialSettings
                0x004104c4       0x50 contiki-OrisenStamp.a(io-pins.o)
 .rodata.str1.1
                0x00410514        0xd contiki-OrisenStamp.a(contiki-maca.o)
 *fill*         0x00410521        0x3 00
 .rodata.contiki_maca_driver
                0x00410524       0x28 contiki-OrisenStamp.a(contiki-maca.o)
                0x00410524                contiki_maca_driver
 .rodata.buffer.1350
                0x0041054c       0x10 contiki-OrisenStamp.a(strformat.o)
 .rodata.str1.1
                0x0041055c       0x35 contiki-OrisenStamp.a(strformat.o)
                                 0x37 (size before relaxing)
 .rodata.buffer.1364
                0x00410591       0x10 contiki-OrisenStamp.a(strformat.o)
 .rodata.str1.1
                0x004105a1       0x41 contiki-OrisenStamp.a(i2c.o)
 *fill*         0x004105e2        0x2 00
 .rodata.decode_status
                0x004105e4       0x3c contiki-OrisenStamp.a(maca.o)
 .rodata.addr_cal5
                0x00410620       0x10 contiki-OrisenStamp.a(maca.o)
                0x00410620                addr_cal5
 .rodata.PSMVAL
                0x00410630       0x4c contiki-OrisenStamp.a(maca.o)
                0x00410630                PSMVAL
 .rodata.addr_seq2
                0x0041067c        0x8 contiki-OrisenStamp.a(maca.o)
                0x0041067c                addr_seq2
 .rodata.AIMVAL
                0x00410684       0x4c contiki-OrisenStamp.a(maca.o)
                0x00410684                AIMVAL
 .rodata.addr_seq1
                0x004106d0        0x8 contiki-OrisenStamp.a(maca.o)
                0x004106d0                addr_seq1
 .rodata.PAVAL  0x004106d8       0x4c contiki-OrisenStamp.a(maca.o)
                0x004106d8                PAVAL
 .rodata.addr_cal3_seq1
                0x00410724        0xc contiki-OrisenStamp.a(maca.o)
                0x00410724                addr_cal3_seq1
 .rodata.addr_cal3_seq3
                0x00410730        0x4 contiki-OrisenStamp.a(maca.o)
                0x00410730                addr_cal3_seq3
 .rodata.data_reg_rep
                0x00410734       0xac contiki-OrisenStamp.a(maca.o)
                0x00410734                data_reg_rep
 .rodata.VCODivF
                0x004107e0       0x40 contiki-OrisenStamp.a(maca.o)
                0x004107e0                VCODivF
 .rodata.addr_cal3_seq2
                0x00410820        0x8 contiki-OrisenStamp.a(maca.o)
                0x00410820                addr_cal3_seq2
 .rodata.VCODivI
                0x00410828       0x10 contiki-OrisenStamp.a(maca.o)
                0x00410828                VCODivI
 .rodata.data_seq1
                0x00410838        0x8 contiki-OrisenStamp.a(maca.o)
                0x00410838                data_seq1
 .rodata.data_seq2
                0x00410840        0x8 contiki-OrisenStamp.a(maca.o)
                0x00410840                data_seq2
 .rodata.data_cal5
                0x00410848       0x10 contiki-OrisenStamp.a(maca.o)
                0x00410848                data_cal5
 .rodata.data_cal3_seq1
                0x00410858        0xc contiki-OrisenStamp.a(maca.o)
                0x00410858                data_cal3_seq1
 .rodata.addr_reg_rep
                0x00410864       0xac contiki-OrisenStamp.a(maca.o)
                0x00410864                addr_reg_rep
 .rodata.data_cal3_seq2
                0x00410910        0x8 contiki-OrisenStamp.a(maca.o)
                0x00410910                data_cal3_seq2
 .rodata.data_cal3_seq3
                0x00410918        0x4 contiki-OrisenStamp.a(maca.o)
                0x00410918                data_cal3_seq3
 .rodata.uc     0x0041091c        0x8 contiki-OrisenStamp.a(unicast.o)
 .rodata.attributes
                0x00410924        0x6 contiki-OrisenStamp.a(unicast.o)
 *fill*         0x0041092a        0x2 00
 .rodata.broadcast
                0x0041092c        0x8 contiki-OrisenStamp.a(ipolite.o)
 .rodata.netflood
                0x00410934        0xc contiki-OrisenStamp.a(netflood.o)
 .rodata.attributes
                0x00410940        0xc contiki-OrisenStamp.a(multihop.o)
 .rodata.data_callbacks
                0x0041094c        0x8 contiki-OrisenStamp.a(multihop.o)
 .rodata.bc     0x00410954        0x8 contiki-OrisenStamp.a(trickle.o)
 .rodata.attributes
                0x0041095c        0x6 contiki-OrisenStamp.a(trickle.o)
 .rodata        0x00410962      0x100 /home/user/CodeSourcery/Sourcery_G++_Lite/bin/../lib/gcc/arm-none-eabi/4.3.2/libgcc.a(_clz.o)
                0x00410962                __clz_tab
 .rodata        0x00410a62      0x101 /home/user/CodeSourcery/Sourcery_G++_Lite/bin/../lib/gcc/arm-none-eabi/4.3.2/../../../../arm-none-eabi/lib/libc.a(lib_a-ctype_.o)
                0x00410a62                _ctype_

.ARM.exidx      0x00410b64       0x10
 .ARM.exidx     0x00410b64        0x8 /home/user/CodeSourcery/Sourcery_G++_Lite/bin/../lib/gcc/arm-none-eabi/4.3.2/libgcc.a(_divdi3.o)
 .ARM.exidx     0x00410b6c        0x8 /home/user/CodeSourcery/Sourcery_G++_Lite/bin/../lib/gcc/arm-none-eabi/4.3.2/libgcc.a(_udivdi3.o)

.rodata1
 *(.rodata1)

.eh_frame_hdr
 *(.eh_frame_hdr)

.eh_frame
 *(.eh_frame)

.gcc_except_table
 *(.gcc_except_table .gcc_except_table.*)
                0x00410b74                . = ALIGN (0x4)
                0x00410b74                . = (0x4 DATA_SEGMENT_ALIGN 0x4)

.eh_frame
 *(.eh_frame)

.gcc_except_table
 *(.gcc_except_table .gcc_except_table.*)

.tdata
 *(.tdata .tdata.* .gnu.linkonce.td.*)

.tbss
 *(.tbss .tbss.* .gnu.linkonce.tb.*)
 *(.tcommon)

.preinit_array  0x00410b74        0x0
                0x00410b74                PROVIDE (__preinit_array_start, .)
 *(.preinit_array)
                0x00410b74                PROVIDE (__preinit_array_end, .)

.init_array     0x00410b74        0x0
                0x00410b74                PROVIDE (__init_array_start, .)
 *(SORT(.init_array.*))
 *(.init_array)
                0x00410b74                PROVIDE (__init_array_end, .)

.fini_array     0x00410b74        0x0
                0x00410b74                PROVIDE (__fini_array_start, .)
 *(.fini_array)
 *(SORT(.fini_array.*))
                0x00410b74                PROVIDE (__fini_array_end, .)

.ctors
 *crtbegin.o(.ctors)
 *crtbegin?.o(.ctors)
 *(EXCLUDE_FILE(*crtend?.o *crtend.o) .ctors)
 *(SORT(.ctors.*))
 *(.ctors)

.dtors
 *crtbegin.o(.dtors)
 *crtbegin?.o(.dtors)
 *(EXCLUDE_FILE(*crtend?.o *crtend.o) .dtors)
 *(SORT(.dtors.*))
 *(.dtors)

.jcr
 *(.jcr)

.data.rel.ro
 *(.data.rel.ro.local* .gnu.linkonce.d.rel.ro.local.*)
 *(.data.rel.ro* .gnu.linkonce.d.rel.ro.*)

.dynamic
 *(.dynamic)
                0x00410b74                . = (. DATA_SEGMENT_RELRO_END 0x0)

.got
 *(.got.plt)
 *(.got)

.data           0x00410b74      0x640
                0x00410b74                __data_start = .
 *(.data .data.* .gnu.linkonce.d.*)
 .data.boot_process
                0x00410b74       0x10 boot.co
                0x00410b74                boot_process
 .data.uart2_send_command
                0x00410b84       0x14 obj_OrisenStamp/commands.o
 .data.uart1_shell_disable_process
                0x00410b98       0x10 obj_OrisenStamp/commands.o
                0x00410b98                uart1_shell_disable_process
 .data.uart2_send
                0x00410ba8       0x10 obj_OrisenStamp/commands.o
                0x00410ba8                uart2_send
 .data.uart2_log_disable
                0x00410bb8       0x14 obj_OrisenStamp/commands.o
 .data.uart2_shell_disable_process
                0x00410bcc       0x10 obj_OrisenStamp/commands.o
                0x00410bcc                uart2_shell_disable_process
 .data.uart1_shell_disable
                0x00410bdc       0x14 obj_OrisenStamp/commands.o
 .data.rudolph1_send_cmd
                0x00410bf0       0x14 obj_OrisenStamp/commands.o
 .data.mesh_end
                0x00410c04       0x14 obj_OrisenStamp/commands.o
 .data.uart2_shell_disable
                0x00410c18       0x14 obj_OrisenStamp/commands.o
 .data.rimeaddr_change_process
                0x00410c2c       0x10 obj_OrisenStamp/commands.o
                0x00410c2c                rimeaddr_change_process
 .data.mesh_end_process
                0x00410c3c       0x10 obj_OrisenStamp/commands.o
                0x00410c3c                mesh_end_process
 .data.uart2_log_enable
                0x00410c4c       0x14 obj_OrisenStamp/commands.o
 .data.testcmd_process
                0x00410c60       0x10 obj_OrisenStamp/commands.o
                0x00410c60                testcmd_process
 .data.led_command
                0x00410c70       0x14 obj_OrisenStamp/commands.o
 .data.rudolph1_start_process
                0x00410c84       0x10 obj_OrisenStamp/commands.o
                0x00410c84                rudolph1_start_process
 .data.rimeaddr_change
                0x00410c94       0x14 obj_OrisenStamp/commands.o
 .data.ble_process
                0x00410ca8       0x10 obj_OrisenStamp/commands.o
                0x00410ca8                ble_process
 .data.uart2_shell_enable_process
                0x00410cb8       0x10 obj_OrisenStamp/commands.o
                0x00410cb8                uart2_shell_enable_process
 .data.uart2_log_disable_process
                0x00410cc8       0x10 obj_OrisenStamp/commands.o
                0x00410cc8                uart2_log_disable_process
 .data.mesh_send_cmd
                0x00410cd8       0x14 obj_OrisenStamp/commands.o
 .data.uart1_shell_enable
                0x00410cec       0x14 obj_OrisenStamp/commands.o
 .data.uart2_shell_enable
                0x00410d00       0x14 obj_OrisenStamp/commands.o
 .data.mesh_start
                0x00410d14       0x14 obj_OrisenStamp/commands.o
 .data.rudolph1_start
                0x00410d28       0x14 obj_OrisenStamp/commands.o
 .data.rudolph1_end
                0x00410d3c       0x14 obj_OrisenStamp/commands.o
 .data.mesh_start_process
                0x00410d50       0x10 obj_OrisenStamp/commands.o
                0x00410d50                mesh_start_process
 .data.uart2_log_enable_process
                0x00410d60       0x10 obj_OrisenStamp/commands.o
                0x00410d60                uart2_log_enable_process
 .data.lcd_command
                0x00410d70       0x14 obj_OrisenStamp/commands.o
 .data.lcd_process
                0x00410d84       0x10 obj_OrisenStamp/commands.o
                0x00410d84                lcd_process
 .data.uart1_shell_enable_process
                0x00410d94       0x10 obj_OrisenStamp/commands.o
                0x00410d94                uart1_shell_enable_process
 .data.rudolph1_set_file_process
                0x00410da4       0x10 obj_OrisenStamp/commands.o
                0x00410da4                rudolph1_set_file_process
 .data.mesh_send_process
                0x00410db4       0x10 obj_OrisenStamp/commands.o
                0x00410db4                mesh_send_process
 .data.rudolph1_end_process
                0x00410dc4       0x10 obj_OrisenStamp/commands.o
                0x00410dc4                rudolph1_end_process
 .data.rudolph1_set_file
                0x00410dd4       0x14 obj_OrisenStamp/commands.o
 .data.ble_command
                0x00410de8       0x14 obj_OrisenStamp/commands.o
 .data.test_command
                0x00410dfc       0x14 obj_OrisenStamp/commands.o
 .data.rudolph1_send_process
                0x00410e10       0x10 obj_OrisenStamp/commands.o
                0x00410e10                rudolph1_send_process
 .data.led_process
                0x00410e20       0x10 obj_OrisenStamp/commands.o
                0x00410e20                led_process
 .data.uart2_process
                0x00410e30       0x10 obj_OrisenStamp/uart2_handler.o
                0x00410e30                uart2_process
 .data.uart2_serial_input_process
                0x00410e40       0x10 obj_OrisenStamp/uart2_handler.o
                0x00410e40                uart2_serial_input_process
 .data.uart2_log_process
                0x00410e50       0x10 obj_OrisenStamp/uart2_handler.o
                0x00410e50                uart2_log_process
 .data.mesh_process
                0x00410e60       0x10 obj_OrisenStamp/mesh_my.o
                0x00410e60                mesh_process
 .data.rudolph1_process
                0x00410e70       0x10 obj_OrisenStamp/rudolph1_my.o
                0x00410e70                rudolph1_process
 .data.settings_load_process
                0x00410e80       0x10 obj_OrisenStamp/settings_read.o
                0x00410e80                settings_load_process
 .data.uarts_test
                0x00410e90       0x10 obj_OrisenStamp/uarts_test.o
                0x00410e90                uarts_test
 .data.sensors  0x00410ea0        0x8 obj_OrisenStamp/contiki-stamp-main.o
                0x00410ea0                sensors
 .data.max_time
                0x00410ea8        0x4 contiki-OrisenStamp.a(route.o)
 .data.route_mem
                0x00410eac        0xc contiki-OrisenStamp.a(route.o)
 .data.metadata_memb
                0x00410eb8        0xc contiki-OrisenStamp.a(csma.o)
 .data.neighbor_memb
                0x00410ec4        0xc contiki-OrisenStamp.a(csma.o)
 .data.packet_memb
                0x00410ed0        0xc contiki-OrisenStamp.a(csma.o)
 .data.serial_line_process
                0x00410edc       0x10 contiki-OrisenStamp.a(serial-line.o)
                0x00410edc                serial_line_process
 .data.line     0x00410eec        0x4 contiki-OrisenStamp.a(serial-line.o)
 .data.etimer_process
                0x00410ef0       0x10 contiki-OrisenStamp.a(etimer.o)
                0x00410ef0                etimer_process
 .data.ctimer_process
                0x00410f00       0x10 contiki-OrisenStamp.a(ctimer.o)
                0x00410f00                ctimer_process
 .data.bufmem   0x00410f10        0xc contiki-OrisenStamp.a(queuebuf.o)
 .data.refbufmem
                0x00410f1c        0xc contiki-OrisenStamp.a(queuebuf.o)
 .data.buframmem
                0x00410f28        0xc contiki-OrisenStamp.a(queuebuf.o)
 .data.serial_shell_process
                0x00410f34       0x10 contiki-OrisenStamp.a(serial-shell.o)
                0x00410f34                serial_shell_process
 .data.help_command
                0x00410f44       0x14 contiki-OrisenStamp.a(shell.o)
 .data.exit_command
                0x00410f58       0x14 contiki-OrisenStamp.a(shell.o)
 .data.help_command_process
                0x00410f6c       0x10 contiki-OrisenStamp.a(shell.o)
                0x00410f6c                help_command_process
 .data.shell_server_process
                0x00410f7c       0x10 contiki-OrisenStamp.a(shell.o)
                0x00410f7c                shell_server_process
 .data.killall_command
                0x00410f8c       0x14 contiki-OrisenStamp.a(shell.o)
 .data.shell_null_process
                0x00410fa0       0x10 contiki-OrisenStamp.a(shell.o)
                0x00410fa0                shell_null_process
 .data.shell_exit_process
                0x00410fb0       0x10 contiki-OrisenStamp.a(shell.o)
                0x00410fb0                shell_exit_process
 .data.shell_process
                0x00410fc0       0x10 contiki-OrisenStamp.a(shell.o)
                0x00410fc0                shell_process
 .data.shell_killall_process
                0x00410fd0       0x10 contiki-OrisenStamp.a(shell.o)
                0x00410fd0                shell_killall_process
 .data.quit_command
                0x00410fe0       0x14 contiki-OrisenStamp.a(shell.o)
 .data.shell_prompt_text
                0x00410ff4        0xa contiki-OrisenStamp.a(shell.o)
 *fill*         0x00410ffe        0x2 00
 .data.kill_command
                0x00411000       0x14 contiki-OrisenStamp.a(shell.o)
 .data.shell_kill_process
                0x00411014       0x10 contiki-OrisenStamp.a(shell.o)
                0x00411014                shell_kill_process
 .data.null_command
                0x00411024       0x14 contiki-OrisenStamp.a(shell.o)
 .data.question_command
                0x00411038       0x14 contiki-OrisenStamp.a(shell.o)
 .data.shell_reboot_process
                0x0041104c       0x10 contiki-OrisenStamp.a(shell-reboot.o)
                0x0041104c                shell_reboot_process
 .data.reboot_command
                0x0041105c       0x14 contiki-OrisenStamp.a(shell-reboot.o)
 .data.ls_command
                0x00411070       0x14 contiki-OrisenStamp.a(shell-file.o)
 .data.block_size.2981
                0x00411084        0x4 contiki-OrisenStamp.a(shell-file.o)
 .data.write_command
                0x00411088       0x14 contiki-OrisenStamp.a(shell-file.o)
 .data.shell_rm_process
                0x0041109c       0x10 contiki-OrisenStamp.a(shell-file.o)
                0x0041109c                shell_rm_process
 .data.read_command
                0x004110ac       0x14 contiki-OrisenStamp.a(shell-file.o)
 .data.shell_ls_process
                0x004110c0       0x10 contiki-OrisenStamp.a(shell-file.o)
                0x004110c0                shell_ls_process
 .data.shell_write_process
                0x004110d0       0x10 contiki-OrisenStamp.a(shell-file.o)
                0x004110d0                shell_write_process
 .data.shell_read_process
                0x004110e0       0x10 contiki-OrisenStamp.a(shell-file.o)
                0x004110e0                shell_read_process
 .data.append_command
                0x004110f0       0x14 contiki-OrisenStamp.a(shell-file.o)
 .data.rm_command
                0x00411104       0x14 contiki-OrisenStamp.a(shell-file.o)
 .data.shell_append_process
                0x00411118       0x10 contiki-OrisenStamp.a(shell-file.o)
                0x00411118                shell_append_process
 .data.sensors_process
                0x00411128       0x10 contiki-OrisenStamp.a(sensors.o)
                0x00411128                sensors_process
 .data.rtcYear  0x00411138        0x1 contiki-OrisenStamp.a(uSDcard.o)
                0x00411138                rtcYear
 .data.rtcMon   0x00411139        0x1 contiki-OrisenStamp.a(uSDcard.o)
                0x00411139                rtcMon
 .data.rtcMday  0x0041113a        0x1 contiki-OrisenStamp.a(uSDcard.o)
                0x0041113a                rtcMday
 .data.Stat     0x0041113b        0x1 contiki-OrisenStamp.a(diskio.o)
 .data.RTC_process
                0x0041113c       0x10 contiki-OrisenStamp.a(RTC.o)
                0x0041113c                RTC_process
 .data.kbi_event_process
                0x0041114c       0x10 contiki-OrisenStamp.a(kbi_events.o)
                0x0041114c                kbi_event_process
 .data.contiki_maca_process
                0x0041115c       0x10 contiki-OrisenStamp.a(contiki-maca.o)
                0x0041115c                contiki_maca_process
 .data.ctxt     0x0041116c        0x8 contiki-OrisenStamp.a(dbg-printf.o)
 .data.prm_mode
                0x00411174        0x1 contiki-OrisenStamp.a(maca.o)
                0x00411174                prm_mode
 .data.ctov     0x00411175       0x10 contiki-OrisenStamp.a(maca.o)
                0x00411175                ctov
 *fill*         0x00411185        0x3 00
 .data.get_lqi  0x00411188        0x4 contiki-OrisenStamp.a(maca.o)
                0x00411188                get_lqi
 .data.nvm_setsvar
                0x0041118c        0x4 contiki-OrisenStamp.a(nvm.o)
                0x0041118c                nvm_setsvar
 .data.nvm_read
                0x00411190        0x4 contiki-OrisenStamp.a(nvm.o)
                0x00411190                nvm_read
 .data.nvm_detect
                0x00411194        0x4 contiki-OrisenStamp.a(nvm.o)
                0x00411194                nvm_detect
 .data.nvm_write
                0x00411198        0x4 contiki-OrisenStamp.a(nvm.o)
                0x00411198                nvm_write
 .data.tmr_isr_funcs
                0x0041119c       0x10 contiki-OrisenStamp.a(isr.o)
 .data          0x004111ac        0x8 /home/user/CodeSourcery/Sourcery_G++_Lite/bin/../lib/gcc/arm-none-eabi/4.3.2/../../../../arm-none-eabi/lib/libc.a(lib_a-ctype_.o)
                0x004111ac                __ctype_ptr
                0x004111b0                __ctype_ptr__

.data1
 *(.data1)
                0x004111b4                _edata = .
                0x004111b4                PROVIDE (edata, .)

.stack          0x004111b4      0x720
                0x004111b4                __stack_start__ = .
                0x004112b4                . = (. + IRQ_STACK_SIZE)
 *fill*         0x004111b4      0x100 00
                0x004112b4                . = ALIGN (0x4)
                0x004112b4                __irq_stack_top__ = .
                0x004113b4                . = (. + FIQ_STACK_SIZE)
 *fill*         0x004112b4      0x100 00
                0x004113b4                . = ALIGN (0x4)
                0x004113b4                __fiq_stack_top__ = .
                0x004114b4                . = (. + SVC_STACK_SIZE)
 *fill*         0x004113b4      0x100 00
                0x004114b4                . = ALIGN (0x4)
                0x004114b4                __svc_stack_top__ = .
                0x004114c4                . = (. + ABT_STACK_SIZE)
 *fill*         0x004114b4       0x10 00
                0x004114c4                . = ALIGN (0x4)
                0x004114c4                __abt_stack_top__ = .
                0x004114d4                . = (. + UND_STACK_SIZE)
 *fill*         0x004114c4       0x10 00
                0x004114d4                . = ALIGN (0x4)
                0x004114d4                __und_stack_top__ = .
                0x004118d4                . = (. + SYS_STACK_SIZE)
 *fill*         0x004114d4      0x400 00
                0x004118d4                . = ALIGN (0x4)
                0x004118d4                __sys_stack_top__ = .
                0x004118d4                __stack_end__ = .
                0x004118d4                __bss_start = .
                0x004118d4                __bss_start__ = .

.bss            0x004118d4     0x38ec
 *(.dynbss)
 *(.bss .bss.* .gnu.linkonce.b.*)
 .bss.len.6477  0x004118d4        0x1 obj_OrisenStamp/commands.o
 *fill*         0x004118d5        0x3 00
 .bss.str.6473  0x004118d8        0x4 obj_OrisenStamp/commands.o
 .bss.buffer.6518
                0x004118dc      0x100 obj_OrisenStamp/commands.o
 .bss.next.6700
                0x004119dc        0x4 obj_OrisenStamp/commands.o
 .bss.et.6698   0x004119e0       0x10 obj_OrisenStamp/commands.o
 .bss.i.6476    0x004119f0        0x1 obj_OrisenStamp/commands.o
 .bss.buf.6475  0x004119f1        0xf obj_OrisenStamp/commands.o
 .bss.rbuf.6702
                0x00411a00       0x1e obj_OrisenStamp/commands.o
 *fill*         0x00411a1e        0x2 00
 .bss.data_len.6624
                0x00411a20        0x4 obj_OrisenStamp/commands.o
 .bss.et.6472   0x00411a24       0x10 obj_OrisenStamp/commands.o
 .bss.ptr.6628  0x00411a34        0x4 obj_OrisenStamp/commands.o
 .bss.UART2_SEND
                0x00411a38        0x1 obj_OrisenStamp/uart2_handler.o
                0x00411a38                UART2_SEND
 *fill*         0x00411a39        0x3 00
 .bss.fd.5393   0x00411a3c        0x4 obj_OrisenStamp/uart2_handler.o
 .bss.uart2_sent
                0x00411a40        0x1 obj_OrisenStamp/uart2_handler.o
                0x00411a40                uart2_sent
 .bss.addr      0x00411a41        0x2 obj_OrisenStamp/mesh_my.o
 .bss.mesh_sent
                0x00411a43        0x1 obj_OrisenStamp/mesh_my.o
                0x00411a43                mesh_sent
 .bss.mesh      0x00411a44       0xc4 obj_OrisenStamp/mesh_my.o
 .bss.mesh_send_event
                0x00411b08        0x1 obj_OrisenStamp/mesh_my.o
                0x00411b08                mesh_send_event
 *fill*         0x00411b09        0x3 00
 .bss.file      0x00411b0c        0x4 obj_OrisenStamp/rudolph1_my.o
 .bss.rudolph1  0x00411b10      0x100 obj_OrisenStamp/rudolph1_my.o
 .bss.file_r    0x00411c10        0x4 obj_OrisenStamp/rudolph1_my.o
 .bss.rudolph1_send_event
                0x00411c14        0x1 obj_OrisenStamp/rudolph1_my.o
                0x00411c14                rudolph1_send_event
 *fill*         0x00411c15        0x3 00
 .bss.receive   0x00411c18        0x4 obj_OrisenStamp/rudolph1_my.o
 .bss.u1tou2    0x00411c1c        0x1 obj_OrisenStamp/settings_read.o
 *fill*         0x00411c1d        0x3 00
 .bss.ptr.2947  0x00411c20        0x4 obj_OrisenStamp/settings_read.o
 .bss.u1tou2    0x00411c24        0x1 obj_OrisenStamp/uarts_test.o
 .bss.sensors_flags
                0x00411c25        0x2 obj_OrisenStamp/contiki-stamp-main.o
                0x00411c25                sensors_flags
 .bss.rimeaddr_node_addr
                0x00411c27        0x2 contiki-OrisenStamp.a(rimeaddr.o)
                0x00411c27                rimeaddr_node_addr
 *fill*         0x00411c29        0x3 00
 .bss.sniffers_list
                0x00411c2c        0x4 contiki-OrisenStamp.a(rime.o)
 .bss.rimestats
                0x00411c30       0x48 contiki-OrisenStamp.a(rimestats.o)
                0x00411c30                rimestats
 .bss.announcements_list
                0x00411c78        0x4 contiki-OrisenStamp.a(announcement.o)
 .bss.observer_callback
                0x00411c7c        0x4 contiki-OrisenStamp.a(announcement.o)
 .bss.c         0x00411c80       0x6c contiki-OrisenStamp.a(broadcast-annou)
 .bss.route_table_list
                0x00411cec        0x4 contiki-OrisenStamp.a(route.o)
 .bss.t         0x00411cf0       0x20 contiki-OrisenStamp.a(route.o)
 .bss.route_mem_memb_mem
                0x00411d10       0x80 contiki-OrisenStamp.a(route.o)
 .bss.route_mem_memb_count
                0x00411d90        0x8 contiki-OrisenStamp.a(route.o)
 .bss.rrep_pending
                0x00411d98        0x1 contiki-OrisenStamp.a(route-discovery)
 *fill*         0x00411d99        0x3 00
 .bss.channel_list_list
                0x00411d9c        0x4 contiki-OrisenStamp.a(channel.o)
 .bss.mac_dsn   0x00411da0        0x1 contiki-OrisenStamp.a(framer-802154.o)
 .bss.initialized
                0x00411da1        0x1 contiki-OrisenStamp.a(framer-802154.o)
 .bss.seqno.3061
                0x00411da2        0x2 contiki-OrisenStamp.a(csma.o)
 .bss.packet_memb_memb_count
                0x00411da4       0x10 contiki-OrisenStamp.a(csma.o)
 .bss.metadata_memb_memb_count
                0x00411db4       0x10 contiki-OrisenStamp.a(csma.o)
 .bss.metadata_memb_memb_mem
                0x00411dc4       0xc0 contiki-OrisenStamp.a(csma.o)
 .bss.neighbor_list_list
                0x00411e84        0x4 contiki-OrisenStamp.a(csma.o)
 .bss.packet_memb_memb_mem
                0x00411e88       0xc0 contiki-OrisenStamp.a(csma.o)
 .bss.neighbor_memb_memb_count
                0x00411f48        0x2 contiki-OrisenStamp.a(csma.o)
 *fill*         0x00411f4a        0x2 00
 .bss.neighbor_memb_memb_mem
                0x00411f4c       0x68 contiki-OrisenStamp.a(csma.o)
 .bss.process_maxevents
                0x00411fb4        0x1 contiki-OrisenStamp.a(process.o)
                0x00411fb4                process_maxevents
 .bss.fevent    0x00411fb5        0x1 contiki-OrisenStamp.a(process.o)
 .bss.nevents   0x00411fb6        0x1 contiki-OrisenStamp.a(process.o)
 *fill*         0x00411fb7        0x1 00
 .bss.data.2492
                0x00411fb8        0x4 contiki-OrisenStamp.a(process.o)
 .bss.lastevent
                0x00411fbc        0x1 contiki-OrisenStamp.a(process.o)
 *fill*         0x00411fbd        0x3 00
 .bss.process_current
                0x00411fc0        0x4 contiki-OrisenStamp.a(process.o)
                0x00411fc0                process_current
 .bss.process_list
                0x00411fc4        0x4 contiki-OrisenStamp.a(process.o)
                0x00411fc4                process_list
 .bss.poll_requested
                0x00411fc8        0x1 contiki-OrisenStamp.a(process.o)
 *fill*         0x00411fc9        0x3 00
 .bss.p.2494    0x00411fcc        0x4 contiki-OrisenStamp.a(process.o)
 .bss.snum.2537
                0x00411fd0        0x1 contiki-OrisenStamp.a(process.o)
 *fill*         0x00411fd1        0x3 00
 .bss.events    0x00411fd4       0x60 contiki-OrisenStamp.a(process.o)
 .bss.ev.2491   0x00412034        0x1 contiki-OrisenStamp.a(process.o)
 *fill*         0x00412035        0x3 00
 .bss.receiver.2493
                0x00412038        0x4 contiki-OrisenStamp.a(process.o)
 .bss.serial_line1_event_message
                0x0041203c        0x1 contiki-OrisenStamp.a(serial-line.o)
                0x0041203c                serial_line1_event_message
 .bss.serial_line2_event_message
                0x0041203d        0x1 contiki-OrisenStamp.a(serial-line.o)
                0x0041203d                serial_line2_event_message
 .bss.rxbuf_data
                0x0041203e       0x80 contiki-OrisenStamp.a(serial-line.o)
 .bss.rxbuf_data2
                0x004120be       0x80 contiki-OrisenStamp.a(serial-line.o)
 *fill*         0x0041213e        0x2 00
 .bss.rxbuf     0x00412140        0x8 contiki-OrisenStamp.a(serial-line.o)
 .bss.ptr2.2076
                0x00412148        0x4 contiki-OrisenStamp.a(serial-line.o)
 .bss.buf2.2075
                0x0041214c       0x80 contiki-OrisenStamp.a(serial-line.o)
 .bss.buf.2073  0x004121cc       0x80 contiki-OrisenStamp.a(serial-line.o)
 .bss.ptr.2074  0x0041224c        0x4 contiki-OrisenStamp.a(serial-line.o)
 .bss.overflow.2057
                0x00412250        0x2 contiki-OrisenStamp.a(serial-line.o)
 *fill*         0x00412252        0x2 00
 .bss.rxbuf2    0x00412254        0x8 contiki-OrisenStamp.a(serial-line.o)
 .bss.timerlist
                0x0041225c        0x4 contiki-OrisenStamp.a(etimer.o)
 .bss.next_expiration
                0x00412260        0x4 contiki-OrisenStamp.a(etimer.o)
 .bss.ctimer_list_list
                0x00412264        0x4 contiki-OrisenStamp.a(ctimer.o)
 .bss.initialized
                0x00412268        0x1 contiki-OrisenStamp.a(ctimer.o)
 *fill*         0x00412269        0x3 00
 .bss.packetbufptr
                0x0041226c        0x4 contiki-OrisenStamp.a(packetbuf.o)
 .bss.hdrptr    0x00412270        0x1 contiki-OrisenStamp.a(packetbuf.o)
 *fill*         0x00412271        0x1 00
 .bss.buflen    0x00412272        0x2 contiki-OrisenStamp.a(packetbuf.o)
 .bss.packetbuf_attrs
                0x00412274       0x30 contiki-OrisenStamp.a(packetbuf.o)
                0x00412274                packetbuf_attrs
 .bss.packetbuf_aligned
                0x004122a4       0xb2 contiki-OrisenStamp.a(packetbuf.o)
 .bss.packetbuf_addrs
                0x00412356        0x8 contiki-OrisenStamp.a(packetbuf.o)
                0x00412356                packetbuf_addrs
 .bss.bufptr    0x0041235e        0x2 contiki-OrisenStamp.a(packetbuf.o)
 .bss.buframmem_memb_count
                0x00412360       0x10 contiki-OrisenStamp.a(queuebuf.o)
 .bss.bufmem_memb_mem
                0x00412370       0x40 contiki-OrisenStamp.a(queuebuf.o)
 .bss.buframmem_memb_mem
                0x004123b0      0xba0 contiki-OrisenStamp.a(queuebuf.o)
 .bss.refbufmem_memb_mem
                0x00412f50       0x78 contiki-OrisenStamp.a(queuebuf.o)
 .bss.refbufmem_memb_count
                0x00412fc8        0x2 contiki-OrisenStamp.a(queuebuf.o)
 .bss.bufmem_memb_count
                0x00412fca       0x10 contiki-OrisenStamp.a(queuebuf.o)
 *fill*         0x00412fda        0x2 00
 .bss.front_process
                0x00412fdc        0x4 contiki-OrisenStamp.a(shell.o)
 .bss.shell_event_input
                0x00412fe0        0x4 contiki-OrisenStamp.a(shell.o)
                0x00412fe0                shell_event_input
 .bss.time_offset
                0x00412fe4        0x4 contiki-OrisenStamp.a(shell.o)
 .bss.started_process.4180
                0x00412fe8        0x4 contiki-OrisenStamp.a(shell.o)
 .bss.etimer.4218
                0x00412fec       0x10 contiki-OrisenStamp.a(shell.o)
 .bss.commands_list
                0x00412ffc        0x4 contiki-OrisenStamp.a(shell.o)
 .bss.etimer.2869
                0x00413000       0x10 contiki-OrisenStamp.a(shell-reboot.o)
 .bss.dir.2896  0x00413010       0x20 contiki-OrisenStamp.a(shell-file.o)
 .bss.fd.2980   0x00413030        0x4 contiki-OrisenStamp.a(shell-file.o)
 .bss.fd.2921   0x00413034        0x4 contiki-OrisenStamp.a(shell-file.o)
 .bss.totsize.2897
                0x00413038        0x4 contiki-OrisenStamp.a(shell-file.o)
 .bss.fd.2948   0x0041303c        0x4 contiki-OrisenStamp.a(shell-file.o)
 .bss.current_clock
                0x00413040        0x4 contiki-OrisenStamp.a(clock.o)
 .bss.seconds   0x00413044        0x4 contiki-OrisenStamp.a(clock.o)
                0x00413044                seconds
 .bss.i.2093    0x00413048        0x4 contiki-OrisenStamp.a(sensors.o)
 .bss.num_sensors
                0x0041304c        0x1 contiki-OrisenStamp.a(sensors.o)
 *fill*         0x0041304d        0x3 00
 .bss.events.2094
                0x00413050        0x4 contiki-OrisenStamp.a(sensors.o)
 .bss.sensors_event
                0x00413054        0x1 contiki-OrisenStamp.a(sensors.o)
                0x00413054                sensors_event
 .bss.rtcHour   0x00413055        0x1 contiki-OrisenStamp.a(uSDcard.o)
                0x00413055                rtcHour
 .bss.Timer1    0x00413056        0x2 contiki-OrisenStamp.a(uSDcard.o)
                0x00413056                Timer1
 .bss.Timer2    0x00413058        0x2 contiki-OrisenStamp.a(uSDcard.o)
                0x00413058                Timer2
 .bss.rtcSec    0x0041305a        0x1 contiki-OrisenStamp.a(uSDcard.o)
                0x0041305a                rtcSec
 .bss.rtcMin    0x0041305b        0x1 contiki-OrisenStamp.a(uSDcard.o)
                0x0041305b                rtcMin
 .bss.fatfs     0x0041305c      0x230 contiki-OrisenStamp.a(uSDcard.o)
                0x0041305c                fatfs
 .bss.Fsid      0x0041328c        0x2 contiki-OrisenStamp.a(ff.o)
 *fill*         0x0041328e        0x2 00
 .bss.FatFs     0x00413290        0x4 contiki-OrisenStamp.a(ff.o)
 .bss.CardType  0x00413294        0x4 contiki-OrisenStamp.a(diskio.o)
 .bss.fil       0x00413298      0x224 contiki-OrisenStamp.a(cfs-fat.o)
 .bss.br        0x004134bc        0x4 contiki-OrisenStamp.a(cfs-fat.o)
 .bss.rc        0x004134c0        0x1 contiki-OrisenStamp.a(cfs-fat.o)
 *fill*         0x004134c1        0x3 00
 .bss.alarmCallback
                0x004134c4        0x4 contiki-OrisenStamp.a(RTC.o)
 .bss.rxbuf.4552
                0x004134c8        0x4 contiki-OrisenStamp.a(RTC.o)
 .bss.RTC_expiredFlag
                0x004134cc        0x1 contiki-OrisenStamp.a(RTC.o)
 *fill*         0x004134cd        0x3 00
 .bss.alarmProcess
                0x004134d0        0x4 contiki-OrisenStamp.a(RTC.o)
 .bss.txbuf.4551
                0x004134d4       0x11 contiki-OrisenStamp.a(RTC.o)
 *fill*         0x004134e5        0x3 00
 .bss.eventHandlerT9
                0x004134e8        0x4 contiki-OrisenStamp.a(kbi_events.o)
 .bss.T10_flag  0x004134ec        0x1 contiki-OrisenStamp.a(kbi_events.o)
 .bss.kbi_T9_flag
                0x004134ed        0x1 contiki-OrisenStamp.a(kbi_events.o)
 *fill*         0x004134ee        0x2 00
 .bss.eventHandlerT10
                0x004134f0        0x4 contiki-OrisenStamp.a(kbi_events.o)
 .bss.kbi_T10_flag
                0x004134f4        0x1 contiki-OrisenStamp.a(kbi_events.o)
 .bss.T9_flag   0x004134f5        0x1 contiki-OrisenStamp.a(kbi_events.o)
 *fill*         0x004134f6        0x2 00
 .bss.eventProcessT9
                0x004134f8        0x4 contiki-OrisenStamp.a(kbi_events.o)
 .bss.eventProcessT10
                0x004134fc        0x4 contiki-OrisenStamp.a(kbi_events.o)
 .bss.ioPins    0x00413500       0x40 contiki-OrisenStamp.a(io-pins.o)
 .bss.cal_rtc_secs
                0x00413540        0x4 contiki-OrisenStamp.a(contiki-crm.o)
                0x00413540                cal_rtc_secs
 .bss.prepped_p
                0x00413544       0x94 contiki-OrisenStamp.a(contiki-maca.o)
 .bss.contiki_maca_request_on
                0x004135d8        0x1 contiki-OrisenStamp.a(contiki-maca.o)
 .bss.contiki_maca_request_off
                0x004135d9        0x1 contiki-OrisenStamp.a(contiki-maca.o)
 .bss.tx_status
                0x004135da        0x1 contiki-OrisenStamp.a(contiki-maca.o)
 .bss.leds      0x004135db        0x1 contiki-OrisenStamp.a(leds.o)
 .bss.invert    0x004135dc        0x1 contiki-OrisenStamp.a(leds.o)
 *fill*         0x004135dd        0x3 00
 .bss.uart1_input_handler
                0x004135e0        0x4 contiki-OrisenStamp.a(contiki-uart.o)
                0x004135e0                uart1_input_handler
 .bss.tx_byte_ctr
                0x004135e4        0x1 contiki-OrisenStamp.a(i2c.o)
 *fill*         0x004135e5        0x3 00
 .bss.tx_buf_ptr
                0x004135e8        0x4 contiki-OrisenStamp.a(i2c.o)
 .bss.rx_buf_ptr
                0x004135ec        0x4 contiki-OrisenStamp.a(i2c.o)
 .bss.rx_byte_ctr
                0x004135f0        0x1 contiki-OrisenStamp.a(i2c.o)
 *fill*         0x004135f1        0x3 00
 .bss.last_time.4880
                0x004135f4        0x4 contiki-OrisenStamp.a(maca.o)
 .bss.dma_rx    0x004135f8        0x4 contiki-OrisenStamp.a(maca.o)
 .bss.fcs_mode  0x004135fc        0x1 contiki-OrisenStamp.a(maca.o)
                0x004135fc                fcs_mode
 *fill*         0x004135fd        0x3 00
 .bss.ack_p.5203
                0x00413600        0x4 contiki-OrisenStamp.a(maca.o)
 .bss.free_head
                0x00413604        0x4 contiki-OrisenStamp.a(maca.o)
 .bss.last_post
                0x00413608        0x1 contiki-OrisenStamp.a(maca.o)
 *fill*         0x00413609        0x3 00
 .bss.rx_head   0x0041360c        0x4 contiki-OrisenStamp.a(maca.o)
                0x0041360c                rx_head
 .bss.maca_entry
                0x00413610        0x4 contiki-OrisenStamp.a(maca.o)
                0x00413610                maca_entry
 .bss.packet_pool
                0x00413614     0x1280 contiki-OrisenStamp.a(maca.o)
 .bss.last_entry.4881
                0x00414894        0x4 contiki-OrisenStamp.a(maca.o)
 .bss.dummy_ack
                0x00414898       0x94 contiki-OrisenStamp.a(maca.o)
 .bss.dma_tx    0x0041492c        0x4 contiki-OrisenStamp.a(maca.o)
 .bss.ram_values
                0x00414930        0x4 contiki-OrisenStamp.a(maca.o)
 .bss.tx_head   0x00414934        0x4 contiki-OrisenStamp.a(maca.o)
                0x00414934                tx_head
 .bss.rx_end    0x00414938        0x4 contiki-OrisenStamp.a(maca.o)
 .bss.tx_end    0x0041493c        0x4 contiki-OrisenStamp.a(maca.o)
 .bss.u1_tx_tail
                0x00414940        0x4 contiki-OrisenStamp.a(uart1.o)
                0x00414940                u1_tx_tail
 .bss.u1_tx_head
                0x00414944        0x4 contiki-OrisenStamp.a(uart1.o)
                0x00414944                u1_tx_head
 .bss.u1_rx_tail
                0x00414948        0x4 contiki-OrisenStamp.a(uart1.o)
                0x00414948                u1_rx_tail
 .bss.u1_rx_buf
                0x0041494c       0x60 contiki-OrisenStamp.a(uart1.o)
                0x0041494c                u1_rx_buf
 .bss.u1_rx_head
                0x004149ac        0x4 contiki-OrisenStamp.a(uart1.o)
                0x004149ac                u1_rx_head
 .bss.u1_tx_buf
                0x004149b0      0x400 contiki-OrisenStamp.a(uart1.o)
                0x004149b0                u1_tx_buf
 .bss.u2_tx_buf
                0x00414db0      0x400 contiki-OrisenStamp.a(uart2.o)
                0x00414db0                u2_tx_buf
 .bss.u2_rx_head
                0x004151b0        0x4 contiki-OrisenStamp.a(uart2.o)
                0x004151b0                u2_rx_head
 .bss.u2_tx_tail
                0x004151b4        0x4 contiki-OrisenStamp.a(uart2.o)
                0x004151b4                u2_tx_tail
 .bss.u2_tx_head
                0x004151b8        0x4 contiki-OrisenStamp.a(uart2.o)
                0x004151b8                u2_tx_head
 .bss.u2_rx_tail
                0x004151bc        0x4 contiki-OrisenStamp.a(uart2.o)
                0x004151bc                u2_rx_tail
 *(COMMON)
                0x004151c0                . = ALIGN ((. != 0x0)?0x4:0x1)
                0x004151c0                _bss_end__ = .
                0x004151c0                __bss_end__ = .
                0x004151c0                . = ALIGN (0x4)

.heap           0x004151c0     0x1000
                0x004151c0                __heap_start__ = .
                0x004151c0                PROVIDE (__HEAP_START, .)
 *(.heap)
                0x004161c0                . = (. + HEAP_SIZE)
 *fill*         0x004151c0     0x1000 00
                0x004161c0                . = ALIGN (0x4)
                0x004161c0                __heap_end__ = .
                0x004161c0                PROVIDE (__HEAP_END, .)
                0x004161c0                . = ALIGN (0x4)
                0x004161c0                __end__ = .
                0x004161c0                _end = .
                0x004161c0                PROVIDE (end, .)
                0x004161c0                . = DATA_SEGMENT_END (.)

.stab           0x00000000      0x210
 *(.stab)
 .stab          0x00000000      0x210 obj_OrisenStamp/start.o

.stabstr        0x00000000       0x2f
 *(.stabstr)
 .stabstr       0x00000000       0x2f obj_OrisenStamp/start.o

.stab.excl
 *(.stab.excl)

.stab.exclstr
 *(.stab.exclstr)

.stab.index
 *(.stab.index)

.stab.indexstr
 *(.stab.indexstr)

.comment        0x00000000      0xcf6
 *(.comment)
 .comment       0x00000000       0x2a boot.co
 .comment       0x0000002a       0x2a obj_OrisenStamp/commands.o
 .comment       0x00000054       0x2a obj_OrisenStamp/uart2_handler.o
 .comment       0x0000007e       0x2a obj_OrisenStamp/mesh_my.o
 .comment       0x000000a8       0x2a obj_OrisenStamp/rudolph1_my.o
 .comment       0x000000d2       0x2a obj_OrisenStamp/settings_read.o
 .comment       0x000000fc       0x2a obj_OrisenStamp/uarts_test.o
 .comment       0x00000126       0x2a obj_OrisenStamp/contiki-stamp-main.o
 .comment       0x00000150       0x2a contiki-OrisenStamp.a(rimeaddr.o)
 .comment       0x0000017a       0x2a contiki-OrisenStamp.a(rime.o)
 .comment       0x000001a4       0x2a contiki-OrisenStamp.a(rimestats.o)
 .comment       0x000001ce       0x2a contiki-OrisenStamp.a(announcement.o)
 .comment       0x000001f8       0x2a contiki-OrisenStamp.a(broadcast-annou)
 .comment       0x00000222       0x2a contiki-OrisenStamp.a(broadcast.o)
 .comment       0x0000024c       0x2a contiki-OrisenStamp.a(abc.o)
 .comment       0x00000276       0x2a contiki-OrisenStamp.a(mesh.o)
 .comment       0x000002a0       0x2a contiki-OrisenStamp.a(route.o)
 .comment       0x000002ca       0x2a contiki-OrisenStamp.a(route-discovery)
 .comment       0x000002f4       0x2a contiki-OrisenStamp.a(rudolph1.o)
 .comment       0x0000031e       0x2a contiki-OrisenStamp.a(chameleon.o)
 .comment       0x00000348       0x2a contiki-OrisenStamp.a(channel.o)
 .comment       0x00000372       0x2a contiki-OrisenStamp.a(chameleon-bitop)
 .comment       0x0000039c       0x2a contiki-OrisenStamp.a(nullrdc.o)
 .comment       0x000003c6       0x2a contiki-OrisenStamp.a(mac.o)
 .comment       0x000003f0       0x2a contiki-OrisenStamp.a(framer-802154.o)
 .comment       0x0000041a       0x2a contiki-OrisenStamp.a(csma.o)
 .comment       0x00000444       0x2a contiki-OrisenStamp.a(process.o)
 .comment       0x0000046e       0x2a contiki-OrisenStamp.a(autostart.o)
 .comment       0x00000498       0x2a contiki-OrisenStamp.a(serial-line.o)
 .comment       0x000004c2       0x2a contiki-OrisenStamp.a(memb.o)
 .comment       0x000004ec       0x2a contiki-OrisenStamp.a(list.o)
 .comment       0x00000516       0x2a contiki-OrisenStamp.a(etimer.o)
 .comment       0x00000540       0x2a contiki-OrisenStamp.a(ctimer.o)
 .comment       0x0000056a       0x2a contiki-OrisenStamp.a(random.o)
 .comment       0x00000594       0x2a contiki-OrisenStamp.a(ringbuf.o)
 .comment       0x000005be       0x2a contiki-OrisenStamp.a(packetbuf.o)
 .comment       0x000005e8       0x2a contiki-OrisenStamp.a(queuebuf.o)
 .comment       0x00000612       0x2a contiki-OrisenStamp.a(serial-shell.o)
 .comment       0x0000063c       0x2a contiki-OrisenStamp.a(shell.o)
 .comment       0x00000666       0x2a contiki-OrisenStamp.a(shell-reboot.o)
 .comment       0x00000690       0x2a contiki-OrisenStamp.a(shell-file.o)
 .comment       0x000006ba       0x2a contiki-OrisenStamp.a(clock.o)
 .comment       0x000006e4       0x2a contiki-OrisenStamp.a(button-sensor.o)
 .comment       0x0000070e       0x2a contiki-OrisenStamp.a(sensors.o)
 .comment       0x00000738       0x2a contiki-OrisenStamp.a(uSDcard.o)
 .comment       0x00000762       0x2a contiki-OrisenStamp.a(ff.o)
 .comment       0x0000078c       0x2a contiki-OrisenStamp.a(diskio.o)
 .comment       0x000007b6       0x2a contiki-OrisenStamp.a(cfs-fat.o)
 .comment       0x000007e0       0x2a contiki-OrisenStamp.a(RTC.o)
 .comment       0x0000080a       0x2a contiki-OrisenStamp.a(kbi_events.o)
 .comment       0x00000834       0x2a contiki-OrisenStamp.a(io-pins.o)
 .comment       0x0000085e       0x2a contiki-OrisenStamp.a(watchdog.o)
 .comment       0x00000888       0x2a contiki-OrisenStamp.a(contiki-crm.o)
 .comment       0x000008b2       0x2a contiki-OrisenStamp.a(contiki-maca.o)
 .comment       0x000008dc       0x2a contiki-OrisenStamp.a(contiki-misc.o)
 .comment       0x00000906       0x2a contiki-OrisenStamp.a(leds.o)
 .comment       0x00000930       0x2a contiki-OrisenStamp.a(contiki-uart.o)
 .comment       0x0000095a       0x2a contiki-OrisenStamp.a(dbg-printf.o)
 .comment       0x00000984       0x2a contiki-OrisenStamp.a(dbg-sprintf.o)
 .comment       0x000009ae       0x2a contiki-OrisenStamp.a(strformat.o)
 .comment       0x000009d8       0x2a contiki-OrisenStamp.a(adc.o)
 .comment       0x00000a02       0x2a contiki-OrisenStamp.a(gpio.o)
 .comment       0x00000a2c       0x2a contiki-OrisenStamp.a(gpio-util.o)
 .comment       0x00000a56       0x2a contiki-OrisenStamp.a(i2c.o)
 .comment       0x00000a80       0x2a contiki-OrisenStamp.a(maca.o)
 .comment       0x00000aaa       0x2a contiki-OrisenStamp.a(nvm.o)
 .comment       0x00000ad4       0x2a contiki-OrisenStamp.a(uart1.o)
 .comment       0x00000afe       0x2a contiki-OrisenStamp.a(uart2.o)
 .comment       0x00000b28       0x2a contiki-OrisenStamp.a(default_lowleve)
 .comment       0x00000b52       0x2a contiki-OrisenStamp.a(isr.o)
 .comment       0x00000b7c       0x2a contiki-OrisenStamp.a(unicast.o)
 .comment       0x00000ba6       0x2a contiki-OrisenStamp.a(ipolite.o)
 .comment       0x00000bd0       0x2a contiki-OrisenStamp.a(netflood.o)
 .comment       0x00000bfa       0x2a contiki-OrisenStamp.a(multihop.o)
 .comment       0x00000c24       0x2a contiki-OrisenStamp.a(trickle.o)
 .comment       0x00000c4e       0x2a contiki-OrisenStamp.a(frame802154.o)
 .comment       0x00000c78       0x2a contiki-OrisenStamp.a(timer.o)
 .comment       0x00000ca2       0x2a contiki-OrisenStamp.a(debug-uart.o)
 .comment       0x00000ccc       0x2a contiki-OrisenStamp.a(leds-arch.o)

.debug
 *(.debug)

.line
 *(.line)

.debug_srcinfo
 *(.debug_srcinfo)

.debug_sfnames
 *(.debug_sfnames)

.debug_aranges  0x00000000     0x19d8
 *(.debug_aranges)
 .debug_aranges
                0x00000000       0x20 boot.co
 .debug_aranges
                0x00000020       0xb8 obj_OrisenStamp/commands.o
 .debug_aranges
                0x000000d8       0x58 obj_OrisenStamp/uart2_handler.o
 .debug_aranges
                0x00000130       0x50 obj_OrisenStamp/mesh_my.o
 .debug_aranges
                0x00000180       0x60 obj_OrisenStamp/rudolph1_my.o
 .debug_aranges
                0x000001e0       0x28 obj_OrisenStamp/settings_read.o
 .debug_aranges
                0x00000208       0x28 obj_OrisenStamp/uarts_test.o
 .debug_aranges
                0x00000230       0x70 obj_OrisenStamp/contiki-stamp-main.o
 .debug_aranges
                0x000002a0       0x30 contiki-OrisenStamp.a(rimeaddr.o)
 .debug_aranges
                0x000002d0       0x48 contiki-OrisenStamp.a(rime.o)
 .debug_aranges
                0x00000318       0x70 contiki-OrisenStamp.a(announcement.o)
 .debug_aranges
                0x00000388       0x60 contiki-OrisenStamp.a(broadcast-annou)
 .debug_aranges
                0x000003e8       0x40 contiki-OrisenStamp.a(broadcast.o)
 .debug_aranges
                0x00000428       0x40 contiki-OrisenStamp.a(abc.o)
 .debug_aranges
                0x00000468       0x50 contiki-OrisenStamp.a(mesh.o)
 .debug_aranges
                0x000004b8       0x70 contiki-OrisenStamp.a(route.o)
 .debug_aranges
                0x00000528       0x50 contiki-OrisenStamp.a(route-discovery)
 .debug_aranges
                0x00000578       0x80 contiki-OrisenStamp.a(rudolph1.o)
 .debug_aranges
                0x000005f8       0x40 contiki-OrisenStamp.a(chameleon.o)
 .debug_aranges
                0x00000638       0x40 contiki-OrisenStamp.a(channel.o)
 .debug_aranges
                0x00000678       0x50 contiki-OrisenStamp.a(chameleon-bitop)
 .debug_aranges
                0x000006c8       0x58 contiki-OrisenStamp.a(nullrdc.o)
 .debug_aranges
                0x00000720       0x20 contiki-OrisenStamp.a(mac.o)
 .debug_aranges
                0x00000740       0x40 contiki-OrisenStamp.a(framer-802154.o)
 .debug_aranges
                0x00000780       0x70 contiki-OrisenStamp.a(csma.o)
 .debug_aranges
                0x000007f0       0x80 contiki-OrisenStamp.a(process.o)
 .debug_aranges
                0x00000870       0x28 contiki-OrisenStamp.a(autostart.o)
 .debug_aranges
                0x00000898       0x30 contiki-OrisenStamp.a(serial-line.o)
 .debug_aranges
                0x000008c8       0x38 contiki-OrisenStamp.a(memb.o)
 .debug_aranges
                0x00000900       0x78 contiki-OrisenStamp.a(list.o)
 .debug_aranges
                0x00000978       0x88 contiki-OrisenStamp.a(etimer.o)
 .debug_aranges
                0x00000a00       0x50 contiki-OrisenStamp.a(ctimer.o)
 .debug_aranges
                0x00000a50       0x28 contiki-OrisenStamp.a(random.o)
 .debug_aranges
                0x00000a78       0x40 contiki-OrisenStamp.a(ringbuf.o)
 .debug_aranges
                0x00000ab8       0xc0 contiki-OrisenStamp.a(packetbuf.o)
 .debug_aranges
                0x00000b78       0x68 contiki-OrisenStamp.a(queuebuf.o)
 .debug_aranges
                0x00000be0       0x40 contiki-OrisenStamp.a(serial-shell.o)
 .debug_aranges
                0x00000c20       0xd8 contiki-OrisenStamp.a(shell.o)
 .debug_aranges
                0x00000cf8       0x28 contiki-OrisenStamp.a(shell-reboot.o)
 .debug_aranges
                0x00000d20       0x48 contiki-OrisenStamp.a(shell-file.o)
 .debug_aranges
                0x00000d68       0x60 contiki-OrisenStamp.a(clock.o)
 .debug_aranges
                0x00000dc8       0x38 contiki-OrisenStamp.a(button-sensor.o)
 .debug_aranges
                0x00000e00       0x48 contiki-OrisenStamp.a(sensors.o)
 .debug_aranges
                0x00000e48       0x78 contiki-OrisenStamp.a(uSDcard.o)
 .debug_aranges
                0x00000ec0      0x158 contiki-OrisenStamp.a(ff.o)
 .debug_aranges
                0x00001018       0x88 contiki-OrisenStamp.a(diskio.o)
 .debug_aranges
                0x000010a0       0x68 contiki-OrisenStamp.a(cfs-fat.o)
 .debug_aranges
                0x00001108       0x98 contiki-OrisenStamp.a(RTC.o)
 .debug_aranges
                0x000011a0       0x50 contiki-OrisenStamp.a(kbi_events.o)
 .debug_aranges
                0x000011f0       0x40 contiki-OrisenStamp.a(io-pins.o)
 .debug_aranges
                0x00001230       0x40 contiki-OrisenStamp.a(watchdog.o)
 .debug_aranges
                0x00001270       0x30 contiki-OrisenStamp.a(contiki-crm.o)
 .debug_aranges
                0x000012a0       0x80 contiki-OrisenStamp.a(contiki-maca.o)
 .debug_aranges
                0x00001320       0x38 contiki-OrisenStamp.a(contiki-misc.o)
 .debug_aranges
                0x00001358       0x58 contiki-OrisenStamp.a(leds.o)
 .debug_aranges
                0x000013b0       0x20 contiki-OrisenStamp.a(contiki-uart.o)
 .debug_aranges
                0x000013d0       0x28 contiki-OrisenStamp.a(dbg-printf.o)
 .debug_aranges
                0x000013f8       0x28 contiki-OrisenStamp.a(dbg-sprintf.o)
 .debug_aranges
                0x00001420       0x40 contiki-OrisenStamp.a(strformat.o)
 .debug_aranges
                0x00001460       0x38 contiki-OrisenStamp.a(adc.o)
 .debug_aranges
                0x00001498       0x68 contiki-OrisenStamp.a(gpio.o)
 .debug_aranges
                0x00001500       0x50 contiki-OrisenStamp.a(gpio-util.o)
 .debug_aranges
                0x00001550       0x58 contiki-OrisenStamp.a(i2c.o)
 .debug_aranges
                0x000015a8      0x110 contiki-OrisenStamp.a(maca.o)
 .debug_aranges
                0x000016b8       0x30 contiki-OrisenStamp.a(uart1.o)
 .debug_aranges
                0x000016e8       0x30 contiki-OrisenStamp.a(uart2.o)
 .debug_aranges
                0x00001718       0x30 contiki-OrisenStamp.a(default_lowleve)
 .debug_aranges
                0x00001748       0x28 contiki-OrisenStamp.a(isr.o)
 .debug_aranges
                0x00001770       0x40 contiki-OrisenStamp.a(unicast.o)
 .debug_aranges
                0x000017b0       0x50 contiki-OrisenStamp.a(ipolite.o)
 .debug_aranges
                0x00001800       0x50 contiki-OrisenStamp.a(netflood.o)
 .debug_aranges
                0x00001850       0x58 contiki-OrisenStamp.a(multihop.o)
 .debug_aranges
                0x000018a8       0x60 contiki-OrisenStamp.a(trickle.o)
 .debug_aranges
                0x00001908       0x40 contiki-OrisenStamp.a(frame802154.o)
 .debug_aranges
                0x00001948       0x40 contiki-OrisenStamp.a(timer.o)
 .debug_aranges
                0x00001988       0x20 contiki-OrisenStamp.a(debug-uart.o)
 .debug_aranges
                0x000019a8       0x30 contiki-OrisenStamp.a(leds-arch.o)

.debug_pubnames
                0x00000000     0x2f13
 *(.debug_pubnames)
 .debug_pubnames
                0x00000000       0x3b boot.co
 .debug_pubnames
                0x0000003b      0x1fa obj_OrisenStamp/commands.o
 .debug_pubnames
                0x00000235       0xec obj_OrisenStamp/uart2_handler.o
 .debug_pubnames
                0x00000321       0x73 obj_OrisenStamp/mesh_my.o
 .debug_pubnames
                0x00000394       0xc0 obj_OrisenStamp/rudolph1_my.o
 .debug_pubnames
                0x00000454       0x3e obj_OrisenStamp/settings_read.o
 .debug_pubnames
                0x00000492       0x35 obj_OrisenStamp/uarts_test.o
 .debug_pubnames
                0x000004c7      0x105 obj_OrisenStamp/contiki-stamp-main.o
 .debug_pubnames
                0x000005cc       0x79 contiki-OrisenStamp.a(rimeaddr.o)
 .debug_pubnames
                0x00000645       0x5f contiki-OrisenStamp.a(rime.o)
 .debug_pubnames
                0x000006a4       0x20 contiki-OrisenStamp.a(rimestats.o)
 .debug_pubnames
                0x000006c4      0x144 contiki-OrisenStamp.a(announcement.o)
 .debug_pubnames
                0x00000808       0x7d contiki-OrisenStamp.a(broadcast-annou)
 .debug_pubnames
                0x00000885       0x4c contiki-OrisenStamp.a(broadcast.o)
 .debug_pubnames
                0x000008d1       0x55 contiki-OrisenStamp.a(abc.o)
 .debug_pubnames
                0x00000926       0x3d contiki-OrisenStamp.a(mesh.o)
 .debug_pubnames
                0x00000963       0xba contiki-OrisenStamp.a(route.o)
 .debug_pubnames
                0x00000a1d       0x62 contiki-OrisenStamp.a(route-discovery)
 .debug_pubnames
                0x00000a7f       0x5b contiki-OrisenStamp.a(rudolph1.o)
 .debug_pubnames
                0x00000ada       0x64 contiki-OrisenStamp.a(chameleon.o)
 .debug_pubnames
                0x00000b3e       0x74 contiki-OrisenStamp.a(channel.o)
 .debug_pubnames
                0x00000bb2       0x6b contiki-OrisenStamp.a(chameleon-bitop)
 .debug_pubnames
                0x00000c1d       0x25 contiki-OrisenStamp.a(nullrdc.o)
 .debug_pubnames
                0x00000c42       0x2d contiki-OrisenStamp.a(mac.o)
 .debug_pubnames
                0x00000c6f       0x24 contiki-OrisenStamp.a(framer-802154.o)
 .debug_pubnames
                0x00000c93       0x22 contiki-OrisenStamp.a(csma.o)
 .debug_pubnames
                0x00000cb5      0x10d contiki-OrisenStamp.a(process.o)
 .debug_pubnames
                0x00000dc2       0x39 contiki-OrisenStamp.a(autostart.o)
 .debug_pubnames
                0x00000dfb       0x98 contiki-OrisenStamp.a(serial-line.o)
 .debug_pubnames
                0x00000e93       0x4d contiki-OrisenStamp.a(memb.o)
 .debug_pubnames
                0x00000ee0       0xc3 contiki-OrisenStamp.a(list.o)
 .debug_pubnames
                0x00000fa3      0x109 contiki-OrisenStamp.a(etimer.o)
 .debug_pubnames
                0x000010ac       0x8b contiki-OrisenStamp.a(ctimer.o)
 .debug_pubnames
                0x00001137       0x32 contiki-OrisenStamp.a(random.o)
 .debug_pubnames
                0x00001169       0x69 contiki-OrisenStamp.a(ringbuf.o)
 .debug_pubnames
                0x000011d2      0x22c contiki-OrisenStamp.a(packetbuf.o)
 .debug_pubnames
                0x000013fe       0xff contiki-OrisenStamp.a(queuebuf.o)
 .debug_pubnames
                0x000014fd       0x7a contiki-OrisenStamp.a(serial-shell.o)
 .debug_pubnames
                0x00001577      0x1c4 contiki-OrisenStamp.a(shell.o)
 .debug_pubnames
                0x0000173b       0x41 contiki-OrisenStamp.a(shell-reboot.o)
 .debug_pubnames
                0x0000177c       0x98 contiki-OrisenStamp.a(shell-file.o)
 .debug_pubnames
                0x00001814       0xbb contiki-OrisenStamp.a(clock.o)
 .debug_pubnames
                0x000018cf       0x31 contiki-OrisenStamp.a(button-sensor.o)
 .debug_pubnames
                0x00001900       0x80 contiki-OrisenStamp.a(sensors.o)
 .debug_pubnames
                0x00001980      0x2ad contiki-OrisenStamp.a(uSDcard.o)
 .debug_pubnames
                0x00001c2d      0x13a contiki-OrisenStamp.a(ff.o)
 .debug_pubnames
                0x00001d67       0x8a contiki-OrisenStamp.a(diskio.o)
 .debug_pubnames
                0x00001df1       0x95 contiki-OrisenStamp.a(cfs-fat.o)
 .debug_pubnames
                0x00001e86      0x128 contiki-OrisenStamp.a(RTC.o)
 .debug_pubnames
                0x00001fae       0xa0 contiki-OrisenStamp.a(kbi_events.o)
 .debug_pubnames
                0x0000204e       0x75 contiki-OrisenStamp.a(io-pins.o)
 .debug_pubnames
                0x000020c3       0x73 contiki-OrisenStamp.a(watchdog.o)
 .debug_pubnames
                0x00002136       0x54 contiki-OrisenStamp.a(contiki-crm.o)
 .debug_pubnames
                0x0000218a      0x167 contiki-OrisenStamp.a(contiki-maca.o)
 .debug_pubnames
                0x000022f1       0x39 contiki-OrisenStamp.a(contiki-misc.o)
 .debug_pubnames
                0x0000232a       0x75 contiki-OrisenStamp.a(leds.o)
 .debug_pubnames
                0x0000239f       0x3e contiki-OrisenStamp.a(contiki-uart.o)
 .debug_pubnames
                0x000023dd       0x1d contiki-OrisenStamp.a(dbg-printf.o)
 .debug_pubnames
                0x000023fa       0x1e contiki-OrisenStamp.a(dbg-sprintf.o)
 .debug_pubnames
                0x00002418       0x32 contiki-OrisenStamp.a(strformat.o)
 .debug_pubnames
                0x0000244a       0x5a contiki-OrisenStamp.a(adc.o)
 .debug_pubnames
                0x000024a4       0xce contiki-OrisenStamp.a(gpio.o)
 .debug_pubnames
                0x00002572       0x8e contiki-OrisenStamp.a(gpio-util.o)
 .debug_pubnames
                0x00002600       0xa1 contiki-OrisenStamp.a(i2c.o)
 .debug_pubnames
                0x000026a1      0x389 contiki-OrisenStamp.a(maca.o)
 .debug_pubnames
                0x00002a2a       0x5a contiki-OrisenStamp.a(nvm.o)
 .debug_pubnames
                0x00002a84       0x96 contiki-OrisenStamp.a(uart1.o)
 .debug_pubnames
                0x00002b1a       0x96 contiki-OrisenStamp.a(uart2.o)
 .debug_pubnames
                0x00002bb0       0x46 contiki-OrisenStamp.a(default_lowleve)
 .debug_pubnames
                0x00002bf6       0x39 contiki-OrisenStamp.a(isr.o)
 .debug_pubnames
                0x00002c2f       0x46 contiki-OrisenStamp.a(unicast.o)
 .debug_pubnames
                0x00002c75       0x59 contiki-OrisenStamp.a(ipolite.o)
 .debug_pubnames
                0x00002cce       0x5d contiki-OrisenStamp.a(netflood.o)
 .debug_pubnames
                0x00002d2b       0x76 contiki-OrisenStamp.a(multihop.o)
 .debug_pubnames
                0x00002da1       0x46 contiki-OrisenStamp.a(trickle.o)
 .debug_pubnames
                0x00002de7       0x56 contiki-OrisenStamp.a(frame802154.o)
 .debug_pubnames
                0x00002e3d       0x68 contiki-OrisenStamp.a(timer.o)
 .debug_pubnames
                0x00002ea5       0x25 contiki-OrisenStamp.a(debug-uart.o)
 .debug_pubnames
                0x00002eca       0x49 contiki-OrisenStamp.a(leds-arch.o)

.debug_info     0x00000000   0x10e4d7
 *(.debug_info .gnu.linkonce.wi.*)
 .debug_info    0x00000000     0x8eee boot.co
 .debug_info    0x00008eee     0x9b3b obj_OrisenStamp/commands.o
 .debug_info    0x00012a29     0x90b2 obj_OrisenStamp/uart2_handler.o
 .debug_info    0x0001badb     0x1637 obj_OrisenStamp/mesh_my.o
 .debug_info    0x0001d112     0x1530 obj_OrisenStamp/rudolph1_my.o
 .debug_info    0x0001e642      0xcf8 obj_OrisenStamp/settings_read.o
 .debug_info    0x0001f33a     0x8e55 obj_OrisenStamp/uarts_test.o
 .debug_info    0x0002818f     0x95fe obj_OrisenStamp/contiki-stamp-main.o
 .debug_info    0x0003178d      0xbe6 contiki-OrisenStamp.a(rimeaddr.o)
 .debug_info    0x00032373     0x1050 contiki-OrisenStamp.a(rime.o)
 .debug_info    0x000333c3      0x146 contiki-OrisenStamp.a(rimestats.o)
 .debug_info    0x00033509      0xe4a contiki-OrisenStamp.a(announcement.o)
 .debug_info    0x00034353     0x12c0 contiki-OrisenStamp.a(broadcast-annou)
 .debug_info    0x00035613      0xfd1 contiki-OrisenStamp.a(broadcast.o)
 .debug_info    0x000365e4      0xdee contiki-OrisenStamp.a(abc.o)
 .debug_info    0x000373d2     0x167b contiki-OrisenStamp.a(mesh.o)
 .debug_info    0x00038a4d     0x1090 contiki-OrisenStamp.a(route.o)
 .debug_info    0x00039add     0x1699 contiki-OrisenStamp.a(route-discovery)
 .debug_info    0x0003b176     0x1618 contiki-OrisenStamp.a(rudolph1.o)
 .debug_info    0x0003c78e      0xe3f contiki-OrisenStamp.a(chameleon.o)
 .debug_info    0x0003d5cd      0xd45 contiki-OrisenStamp.a(channel.o)
 .debug_info    0x0003e312     0x11d9 contiki-OrisenStamp.a(chameleon-bitop)
 .debug_info    0x0003f4eb     0x117d contiki-OrisenStamp.a(nullrdc.o)
 .debug_info    0x00040668      0xb83 contiki-OrisenStamp.a(mac.o)
 .debug_info    0x000411eb     0x1067 contiki-OrisenStamp.a(framer-802154.o)
 .debug_info    0x00042252     0x1613 contiki-OrisenStamp.a(csma.o)
 .debug_info    0x00043865      0xf8a contiki-OrisenStamp.a(process.o)
 .debug_info    0x000447ef      0xc20 contiki-OrisenStamp.a(autostart.o)
 .debug_info    0x0004540f      0xdf8 contiki-OrisenStamp.a(serial-line.o)
 .debug_info    0x00046207      0xc1a contiki-OrisenStamp.a(memb.o)
 .debug_info    0x00046e21      0x322 contiki-OrisenStamp.a(list.o)
 .debug_info    0x00047143      0xf1f contiki-OrisenStamp.a(etimer.o)
 .debug_info    0x00048062      0xecb contiki-OrisenStamp.a(ctimer.o)
 .debug_info    0x00048f2d      0xb1c contiki-OrisenStamp.a(random.o)
 .debug_info    0x00049a49      0xc2b contiki-OrisenStamp.a(ringbuf.o)
 .debug_info    0x0004a674     0x102f contiki-OrisenStamp.a(packetbuf.o)
 .debug_info    0x0004b6a3     0x1116 contiki-OrisenStamp.a(queuebuf.o)
 .debug_info    0x0004c7b9      0xda5 contiki-OrisenStamp.a(serial-shell.o)
 .debug_info    0x0004d55e     0x1769 contiki-OrisenStamp.a(shell.o)
 .debug_info    0x0004ecc7      0xd2d contiki-OrisenStamp.a(shell-reboot.o)
 .debug_info    0x0004f9f4     0x1080 contiki-OrisenStamp.a(shell-file.o)
 .debug_info    0x00050a74     0x8e92 contiki-OrisenStamp.a(clock.o)
 .debug_info    0x00059906     0x8e0d contiki-OrisenStamp.a(button-sensor.o)
 .debug_info    0x00062713      0xe0b contiki-OrisenStamp.a(sensors.o)
 .debug_info    0x0006351e     0x9611 contiki-OrisenStamp.a(uSDcard.o)
 .debug_info    0x0006cb2f     0x1a9a contiki-OrisenStamp.a(ff.o)
 .debug_info    0x0006e5c9     0x79e3 contiki-OrisenStamp.a(diskio.o)
 .debug_info    0x00075fac     0x944d contiki-OrisenStamp.a(cfs-fat.o)
 .debug_info    0x0007f3f9     0x93c9 contiki-OrisenStamp.a(RTC.o)
 .debug_info    0x000887c2     0x8fb4 contiki-OrisenStamp.a(kbi_events.o)
 .debug_info    0x00091776     0x7e00 contiki-OrisenStamp.a(io-pins.o)
 .debug_info    0x00099576       0x89 contiki-OrisenStamp.a(watchdog.o)
 .debug_info    0x000995ff     0x8d61 contiki-OrisenStamp.a(contiki-crm.o)
 .debug_info    0x000a2360     0x9554 contiki-OrisenStamp.a(contiki-maca.o)
 .debug_info    0x000ab8b4     0x8da1 contiki-OrisenStamp.a(contiki-misc.o)
 .debug_info    0x000b4655      0xc2b contiki-OrisenStamp.a(leds.o)
 .debug_info    0x000b5280       0x85 contiki-OrisenStamp.a(contiki-uart.o)
 .debug_info    0x000b5305      0x1c2 contiki-OrisenStamp.a(dbg-printf.o)
 .debug_info    0x000b54c7      0x1d0 contiki-OrisenStamp.a(dbg-sprintf.o)
 .debug_info    0x000b5697      0x71e contiki-OrisenStamp.a(strformat.o)
 .debug_info    0x000b5db5     0x10fc contiki-OrisenStamp.a(adc.o)
 .debug_info    0x000b6eb1     0x8e9d contiki-OrisenStamp.a(gpio.o)
 .debug_info    0x000bfd4e     0x8f00 contiki-OrisenStamp.a(gpio-util.o)
 .debug_info    0x000c8c4e     0x74b6 contiki-OrisenStamp.a(i2c.o)
 .debug_info    0x000d0104     0x9b35 contiki-OrisenStamp.a(maca.o)
 .debug_info    0x000d9c39      0x1f8 contiki-OrisenStamp.a(nvm.o)
 .debug_info    0x000d9e31     0x8e10 contiki-OrisenStamp.a(uart1.o)
 .debug_info    0x000e2c41     0x8df2 contiki-OrisenStamp.a(uart2.o)
 .debug_info    0x000eba33     0x8e4a contiki-OrisenStamp.a(default_lowleve)
 .debug_info    0x000f487d     0x8d9a contiki-OrisenStamp.a(isr.o)
 .debug_info    0x000fd617     0x1078 contiki-OrisenStamp.a(unicast.o)
 .debug_info    0x000fe68f     0x1192 contiki-OrisenStamp.a(ipolite.o)
 .debug_info    0x000ff821     0x1308 contiki-OrisenStamp.a(netflood.o)
 .debug_info    0x00100b29     0x11b4 contiki-OrisenStamp.a(multihop.o)
 .debug_info    0x00101cdd     0x135f contiki-OrisenStamp.a(trickle.o)
 .debug_info    0x0010303c      0xed6 contiki-OrisenStamp.a(frame802154.o)
 .debug_info    0x00103f12      0xbeb contiki-OrisenStamp.a(timer.o)
 .debug_info    0x00104afd      0xb22 contiki-OrisenStamp.a(debug-uart.o)
 .debug_info    0x0010561f     0x8eb8 contiki-OrisenStamp.a(leds-arch.o)

.debug_abbrev   0x00000000     0xb338
 *(.debug_abbrev)
 .debug_abbrev  0x00000000      0x22a boot.co
 .debug_abbrev  0x0000022a      0x332 obj_OrisenStamp/commands.o
 .debug_abbrev  0x0000055c      0x279 obj_OrisenStamp/uart2_handler.o
 .debug_abbrev  0x000007d5      0x2a3 obj_OrisenStamp/mesh_my.o
 .debug_abbrev  0x00000a78      0x2e7 obj_OrisenStamp/rudolph1_my.o
 .debug_abbrev  0x00000d5f      0x246 obj_OrisenStamp/settings_read.o
 .debug_abbrev  0x00000fa5      0x23a obj_OrisenStamp/uarts_test.o
 .debug_abbrev  0x000011df      0x3ba obj_OrisenStamp/contiki-stamp-main.o
 .debug_abbrev  0x00001599      0x1c9 contiki-OrisenStamp.a(rimeaddr.o)
 .debug_abbrev  0x00001762      0x2aa contiki-OrisenStamp.a(rime.o)
 .debug_abbrev  0x00001a0c       0x5d contiki-OrisenStamp.a(rimestats.o)
 .debug_abbrev  0x00001a69      0x227 contiki-OrisenStamp.a(announcement.o)
 .debug_abbrev  0x00001c90      0x2d6 contiki-OrisenStamp.a(broadcast-annou)
 .debug_abbrev  0x00001f66      0x27c contiki-OrisenStamp.a(broadcast.o)
 .debug_abbrev  0x000021e2      0x20a contiki-OrisenStamp.a(abc.o)
 .debug_abbrev  0x000023ec      0x28d contiki-OrisenStamp.a(mesh.o)
 .debug_abbrev  0x00002679      0x2d1 contiki-OrisenStamp.a(route.o)
 .debug_abbrev  0x0000294a      0x360 contiki-OrisenStamp.a(route-discovery)
 .debug_abbrev  0x00002caa      0x332 contiki-OrisenStamp.a(rudolph1.o)
 .debug_abbrev  0x00002fdc      0x253 contiki-OrisenStamp.a(chameleon.o)
 .debug_abbrev  0x0000322f      0x218 contiki-OrisenStamp.a(channel.o)
 .debug_abbrev  0x00003447      0x342 contiki-OrisenStamp.a(chameleon-bitop)
 .debug_abbrev  0x00003789      0x318 contiki-OrisenStamp.a(nullrdc.o)
 .debug_abbrev  0x00003aa1      0x162 contiki-OrisenStamp.a(mac.o)
 .debug_abbrev  0x00003c03      0x2c5 contiki-OrisenStamp.a(framer-802154.o)
 .debug_abbrev  0x00003ec8      0x434 contiki-OrisenStamp.a(csma.o)
 .debug_abbrev  0x000042fc      0x31a contiki-OrisenStamp.a(process.o)
 .debug_abbrev  0x00004616      0x197 contiki-OrisenStamp.a(autostart.o)
 .debug_abbrev  0x000047ad      0x250 contiki-OrisenStamp.a(serial-line.o)
 .debug_abbrev  0x000049fd      0x18b contiki-OrisenStamp.a(memb.o)
 .debug_abbrev  0x00004b88      0x179 contiki-OrisenStamp.a(list.o)
 .debug_abbrev  0x00004d01      0x29e contiki-OrisenStamp.a(etimer.o)
 .debug_abbrev  0x00004f9f      0x262 contiki-OrisenStamp.a(ctimer.o)
 .debug_abbrev  0x00005201      0x146 contiki-OrisenStamp.a(random.o)
 .debug_abbrev  0x00005347      0x194 contiki-OrisenStamp.a(ringbuf.o)
 .debug_abbrev  0x000054db      0x2e3 contiki-OrisenStamp.a(packetbuf.o)
 .debug_abbrev  0x000057be      0x2bb contiki-OrisenStamp.a(queuebuf.o)
 .debug_abbrev  0x00005a79      0x26a contiki-OrisenStamp.a(serial-shell.o)
 .debug_abbrev  0x00005ce3      0x425 contiki-OrisenStamp.a(shell.o)
 .debug_abbrev  0x00006108      0x1ef contiki-OrisenStamp.a(shell-reboot.o)
 .debug_abbrev  0x000062f7      0x291 contiki-OrisenStamp.a(shell-file.o)
 .debug_abbrev  0x00006588      0x215 contiki-OrisenStamp.a(clock.o)
 .debug_abbrev  0x0000679d      0x1ce contiki-OrisenStamp.a(button-sensor.o)
 .debug_abbrev  0x0000696b      0x265 contiki-OrisenStamp.a(sensors.o)
 .debug_abbrev  0x00006bd0      0x2e0 contiki-OrisenStamp.a(uSDcard.o)
 .debug_abbrev  0x00006eb0      0x243 contiki-OrisenStamp.a(ff.o)
 .debug_abbrev  0x000070f3      0x2ae contiki-OrisenStamp.a(diskio.o)
 .debug_abbrev  0x000073a1      0x286 contiki-OrisenStamp.a(cfs-fat.o)
 .debug_abbrev  0x00007627      0x378 contiki-OrisenStamp.a(RTC.o)
 .debug_abbrev  0x0000799f      0x2b2 contiki-OrisenStamp.a(kbi_events.o)
 .debug_abbrev  0x00007c51      0x22d contiki-OrisenStamp.a(io-pins.o)
 .debug_abbrev  0x00007e7e       0x2b contiki-OrisenStamp.a(watchdog.o)
 .debug_abbrev  0x00007ea9      0x1ba contiki-OrisenStamp.a(contiki-crm.o)
 .debug_abbrev  0x00008063      0x36d contiki-OrisenStamp.a(contiki-maca.o)
 .debug_abbrev  0x000083d0      0x1ec contiki-OrisenStamp.a(contiki-misc.o)
 .debug_abbrev  0x000085bc      0x192 contiki-OrisenStamp.a(leds.o)
 .debug_abbrev  0x0000874e       0x7e contiki-OrisenStamp.a(contiki-uart.o)
 .debug_abbrev  0x000087cc      0x112 contiki-OrisenStamp.a(dbg-printf.o)
 .debug_abbrev  0x000088de      0x110 contiki-OrisenStamp.a(dbg-sprintf.o)
 .debug_abbrev  0x000089ee      0x242 contiki-OrisenStamp.a(strformat.o)
 .debug_abbrev  0x00008c30      0x1bd contiki-OrisenStamp.a(adc.o)
 .debug_abbrev  0x00008ded      0x1b3 contiki-OrisenStamp.a(gpio.o)
 .debug_abbrev  0x00008fa0      0x1e8 contiki-OrisenStamp.a(gpio-util.o)
 .debug_abbrev  0x00009188      0x227 contiki-OrisenStamp.a(i2c.o)
 .debug_abbrev  0x000093af      0x3ac contiki-OrisenStamp.a(maca.o)
 .debug_abbrev  0x0000975b       0x89 contiki-OrisenStamp.a(nvm.o)
 .debug_abbrev  0x000097e4      0x1d8 contiki-OrisenStamp.a(uart1.o)
 .debug_abbrev  0x000099bc      0x1ed contiki-OrisenStamp.a(uart2.o)
 .debug_abbrev  0x00009ba9      0x1c5 contiki-OrisenStamp.a(default_lowleve)
 .debug_abbrev  0x00009d6e      0x1d2 contiki-OrisenStamp.a(isr.o)
 .debug_abbrev  0x00009f40      0x28b contiki-OrisenStamp.a(unicast.o)
 .debug_abbrev  0x0000a1cb      0x27c contiki-OrisenStamp.a(ipolite.o)
 .debug_abbrev  0x0000a447      0x2b7 contiki-OrisenStamp.a(netflood.o)
 .debug_abbrev  0x0000a6fe      0x2b7 contiki-OrisenStamp.a(multihop.o)
 .debug_abbrev  0x0000a9b5      0x2ee contiki-OrisenStamp.a(trickle.o)
 .debug_abbrev  0x0000aca3      0x20e contiki-OrisenStamp.a(frame802154.o)
 .debug_abbrev  0x0000aeb1      0x181 contiki-OrisenStamp.a(timer.o)
 .debug_abbrev  0x0000b032      0x137 contiki-OrisenStamp.a(debug-uart.o)
 .debug_abbrev  0x0000b169      0x1cf contiki-OrisenStamp.a(leds-arch.o)

.debug_line     0x00000000     0xa4c8
 *(.debug_line)
 .debug_line    0x00000000      0x1bc boot.co
 .debug_line    0x000001bc      0x452 obj_OrisenStamp/commands.o
 .debug_line    0x0000060e      0x249 obj_OrisenStamp/uart2_handler.o
 .debug_line    0x00000857      0x2ed obj_OrisenStamp/mesh_my.o
 .debug_line    0x00000b44      0x2d5 obj_OrisenStamp/rudolph1_my.o
 .debug_line    0x00000e19      0x172 obj_OrisenStamp/settings_read.o
 .debug_line    0x00000f8b      0x18a obj_OrisenStamp/uarts_test.o
 .debug_line    0x00001115      0x3f3 obj_OrisenStamp/contiki-stamp-main.o
 .debug_line    0x00001508      0x127 contiki-OrisenStamp.a(rimeaddr.o)
 .debug_line    0x0000162f      0x1fa contiki-OrisenStamp.a(rime.o)
 .debug_line    0x00001829       0x4f contiki-OrisenStamp.a(rimestats.o)
 .debug_line    0x00001878      0x206 contiki-OrisenStamp.a(announcement.o)
 .debug_line    0x00001a7e      0x2a2 contiki-OrisenStamp.a(broadcast-annou)
 .debug_line    0x00001d20      0x1a0 contiki-OrisenStamp.a(broadcast.o)
 .debug_line    0x00001ec0      0x17c contiki-OrisenStamp.a(abc.o)
 .debug_line    0x0000203c      0x2cc contiki-OrisenStamp.a(mesh.o)
 .debug_line    0x00002308      0x29e contiki-OrisenStamp.a(route.o)
 .debug_line    0x000025a6      0x305 contiki-OrisenStamp.a(route-discovery)
 .debug_line    0x000028ab      0x33c contiki-OrisenStamp.a(rudolph1.o)
 .debug_line    0x00002be7      0x195 contiki-OrisenStamp.a(chameleon.o)
 .debug_line    0x00002d7c      0x195 contiki-OrisenStamp.a(channel.o)
 .debug_line    0x00002f11      0x236 contiki-OrisenStamp.a(chameleon-bitop)
 .debug_line    0x00003147      0x22c contiki-OrisenStamp.a(nullrdc.o)
 .debug_line    0x00003373       0xf9 contiki-OrisenStamp.a(mac.o)
 .debug_line    0x0000346c      0x1f4 contiki-OrisenStamp.a(framer-802154.o)
 .debug_line    0x00003660      0x360 contiki-OrisenStamp.a(csma.o)
 .debug_line    0x000039c0      0x264 contiki-OrisenStamp.a(process.o)
 .debug_line    0x00003c24      0x128 contiki-OrisenStamp.a(autostart.o)
 .debug_line    0x00003d4c      0x197 contiki-OrisenStamp.a(serial-line.o)
 .debug_line    0x00003ee3      0x145 contiki-OrisenStamp.a(memb.o)
 .debug_line    0x00004028      0x141 contiki-OrisenStamp.a(list.o)
 .debug_line    0x00004169      0x286 contiki-OrisenStamp.a(etimer.o)
 .debug_line    0x000043ef      0x228 contiki-OrisenStamp.a(ctimer.o)
 .debug_line    0x00004617       0xfc contiki-OrisenStamp.a(random.o)
 .debug_line    0x00004713      0x151 contiki-OrisenStamp.a(ringbuf.o)
 .debug_line    0x00004864      0x2c9 contiki-OrisenStamp.a(packetbuf.o)
 .debug_line    0x00004b2d      0x223 contiki-OrisenStamp.a(queuebuf.o)
 .debug_line    0x00004d50      0x1e2 contiki-OrisenStamp.a(serial-shell.o)
 .debug_line    0x00004f32      0x44e contiki-OrisenStamp.a(shell.o)
 .debug_line    0x00005380      0x196 contiki-OrisenStamp.a(shell-reboot.o)
 .debug_line    0x00005516      0x209 contiki-OrisenStamp.a(shell-file.o)
 .debug_line    0x0000571f      0x211 contiki-OrisenStamp.a(clock.o)
 .debug_line    0x00005930      0x18e contiki-OrisenStamp.a(button-sensor.o)
 .debug_line    0x00005abe      0x1af contiki-OrisenStamp.a(sensors.o)
 .debug_line    0x00005c6d      0x272 contiki-OrisenStamp.a(uSDcard.o)
 .debug_line    0x00005edf      0x82d contiki-OrisenStamp.a(ff.o)
 .debug_line    0x0000670c      0x2f0 contiki-OrisenStamp.a(diskio.o)
 .debug_line    0x000069fc      0x264 contiki-OrisenStamp.a(cfs-fat.o)
 .debug_line    0x00006c60      0x3b0 contiki-OrisenStamp.a(RTC.o)
 .debug_line    0x00007010      0x24f contiki-OrisenStamp.a(kbi_events.o)
 .debug_line    0x0000725f      0x23e contiki-OrisenStamp.a(io-pins.o)
 .debug_line    0x0000749d       0x8f contiki-OrisenStamp.a(watchdog.o)
 .debug_line    0x0000752c      0x162 contiki-OrisenStamp.a(contiki-crm.o)
 .debug_line    0x0000768e      0x32d contiki-OrisenStamp.a(contiki-maca.o)
 .debug_line    0x000079bb      0x1e8 contiki-OrisenStamp.a(contiki-misc.o)
 .debug_line    0x00007ba3      0x174 contiki-OrisenStamp.a(leds.o)
 .debug_line    0x00007d17       0x56 contiki-OrisenStamp.a(contiki-uart.o)
 .debug_line    0x00007d6d       0xe9 contiki-OrisenStamp.a(dbg-printf.o)
 .debug_line    0x00007e56       0xf2 contiki-OrisenStamp.a(dbg-sprintf.o)
 .debug_line    0x00007f48      0x21d contiki-OrisenStamp.a(strformat.o)
 .debug_line    0x00008165      0x147 contiki-OrisenStamp.a(adc.o)
 .debug_line    0x000082ac      0x1ef contiki-OrisenStamp.a(gpio.o)
 .debug_line    0x0000849b      0x19d contiki-OrisenStamp.a(gpio-util.o)
 .debug_line    0x00008638      0x1de contiki-OrisenStamp.a(i2c.o)
 .debug_line    0x00008816      0x4f4 contiki-OrisenStamp.a(maca.o)
 .debug_line    0x00008d0a       0xde contiki-OrisenStamp.a(nvm.o)
 .debug_line    0x00008de8      0x177 contiki-OrisenStamp.a(uart1.o)
 .debug_line    0x00008f5f      0x174 contiki-OrisenStamp.a(uart2.o)
 .debug_line    0x000090d3      0x197 contiki-OrisenStamp.a(default_lowleve)
 .debug_line    0x0000926a      0x156 contiki-OrisenStamp.a(isr.o)
 .debug_line    0x000093c0      0x1aa contiki-OrisenStamp.a(unicast.o)
 .debug_line    0x0000956a      0x26e contiki-OrisenStamp.a(ipolite.o)
 .debug_line    0x000097d8      0x27e contiki-OrisenStamp.a(netflood.o)
 .debug_line    0x00009a56      0x205 contiki-OrisenStamp.a(multihop.o)
 .debug_line    0x00009c5b      0x2c2 contiki-OrisenStamp.a(trickle.o)
 .debug_line    0x00009f1d      0x1e5 contiki-OrisenStamp.a(frame802154.o)
 .debug_line    0x0000a102      0x175 contiki-OrisenStamp.a(timer.o)
 .debug_line    0x0000a277       0xf5 contiki-OrisenStamp.a(debug-uart.o)
 .debug_line    0x0000a36c      0x15c contiki-OrisenStamp.a(leds-arch.o)

.debug_frame    0x00000000     0x4234
 *(.debug_frame)
 .debug_frame   0x00000000       0x2c boot.co
 .debug_frame   0x0000002c      0x224 obj_OrisenStamp/commands.o
 .debug_frame   0x00000250       0xe0 obj_OrisenStamp/uart2_handler.o
 .debug_frame   0x00000330       0xc8 obj_OrisenStamp/mesh_my.o
 .debug_frame   0x000003f8       0xe4 obj_OrisenStamp/rudolph1_my.o
 .debug_frame   0x000004dc       0x48 obj_OrisenStamp/settings_read.o
 .debug_frame   0x00000524       0x48 obj_OrisenStamp/uarts_test.o
 .debug_frame   0x0000056c      0x110 obj_OrisenStamp/contiki-stamp-main.o
 .debug_frame   0x0000067c       0x50 contiki-OrisenStamp.a(rimeaddr.o)
 .debug_frame   0x000006cc       0xac contiki-OrisenStamp.a(rime.o)
 .debug_frame   0x00000778      0x120 contiki-OrisenStamp.a(announcement.o)
 .debug_frame   0x00000898       0xf0 contiki-OrisenStamp.a(broadcast-annou)
 .debug_frame   0x00000988       0x90 contiki-OrisenStamp.a(broadcast.o)
 .debug_frame   0x00000a18       0x8c contiki-OrisenStamp.a(abc.o)
 .debug_frame   0x00000aa4       0xd0 contiki-OrisenStamp.a(mesh.o)
 .debug_frame   0x00000b74      0x124 contiki-OrisenStamp.a(route.o)
 .debug_frame   0x00000c98       0xd8 contiki-OrisenStamp.a(route-discovery)
 .debug_frame   0x00000d70      0x164 contiki-OrisenStamp.a(rudolph1.o)
 .debug_frame   0x00000ed4       0x84 contiki-OrisenStamp.a(chameleon.o)
 .debug_frame   0x00000f58       0x8c contiki-OrisenStamp.a(channel.o)
 .debug_frame   0x00000fe4       0xd0 contiki-OrisenStamp.a(chameleon-bitop)
 .debug_frame   0x000010b4       0xd0 contiki-OrisenStamp.a(nullrdc.o)
 .debug_frame   0x00001184       0x28 contiki-OrisenStamp.a(mac.o)
 .debug_frame   0x000011ac       0x88 contiki-OrisenStamp.a(framer-802154.o)
 .debug_frame   0x00001234      0x128 contiki-OrisenStamp.a(csma.o)
 .debug_frame   0x0000135c      0x148 contiki-OrisenStamp.a(process.o)
 .debug_frame   0x000014a4       0x40 contiki-OrisenStamp.a(autostart.o)
 .debug_frame   0x000014e4       0x60 contiki-OrisenStamp.a(serial-line.o)
 .debug_frame   0x00001544       0x78 contiki-OrisenStamp.a(memb.o)
 .debug_frame   0x000015bc      0x120 contiki-OrisenStamp.a(list.o)
 .debug_frame   0x000016dc      0x148 contiki-OrisenStamp.a(etimer.o)
 .debug_frame   0x00001824       0xcc contiki-OrisenStamp.a(ctimer.o)
 .debug_frame   0x000018f0       0x40 contiki-OrisenStamp.a(random.o)
 .debug_frame   0x00001930       0x70 contiki-OrisenStamp.a(ringbuf.o)
 .debug_frame   0x000019a0      0x1e8 contiki-OrisenStamp.a(packetbuf.o)
 .debug_frame   0x00001b88       0xf4 contiki-OrisenStamp.a(queuebuf.o)
 .debug_frame   0x00001c7c       0x8c contiki-OrisenStamp.a(serial-shell.o)
 .debug_frame   0x00001d08      0x2a4 contiki-OrisenStamp.a(shell.o)
 .debug_frame   0x00001fac       0x44 contiki-OrisenStamp.a(shell-reboot.o)
 .debug_frame   0x00001ff0       0xc8 contiki-OrisenStamp.a(shell-file.o)
 .debug_frame   0x000020b8       0xd8 contiki-OrisenStamp.a(clock.o)
 .debug_frame   0x00002190       0x70 contiki-OrisenStamp.a(button-sensor.o)
 .debug_frame   0x00002200       0xa4 contiki-OrisenStamp.a(sensors.o)
 .debug_frame   0x000022a4      0x138 contiki-OrisenStamp.a(uSDcard.o)
 .debug_frame   0x000023dc      0x4a4 contiki-OrisenStamp.a(ff.o)
 .debug_frame   0x00002880      0x17c contiki-OrisenStamp.a(diskio.o)
 .debug_frame   0x000029fc       0xf4 contiki-OrisenStamp.a(cfs-fat.o)
 .debug_frame   0x00002af0      0x1cc contiki-OrisenStamp.a(RTC.o)
 .debug_frame   0x00002cbc       0xbc contiki-OrisenStamp.a(kbi_events.o)
 .debug_frame   0x00002d78       0x98 contiki-OrisenStamp.a(io-pins.o)
 .debug_frame   0x00002e10       0x60 contiki-OrisenStamp.a(watchdog.o)
 .debug_frame   0x00002e70       0x60 contiki-OrisenStamp.a(contiki-crm.o)
 .debug_frame   0x00002ed0      0x114 contiki-OrisenStamp.a(contiki-maca.o)
 .debug_frame   0x00002fe4       0x58 contiki-OrisenStamp.a(contiki-misc.o)
 .debug_frame   0x0000303c       0xd4 contiki-OrisenStamp.a(leds.o)
 .debug_frame   0x00003110       0x20 contiki-OrisenStamp.a(contiki-uart.o)
 .debug_frame   0x00003130       0x44 contiki-OrisenStamp.a(dbg-printf.o)
 .debug_frame   0x00003174       0x48 contiki-OrisenStamp.a(dbg-sprintf.o)
 .debug_frame   0x000031bc       0xa0 contiki-OrisenStamp.a(strformat.o)
 .debug_frame   0x0000325c       0x74 contiki-OrisenStamp.a(adc.o)
 .debug_frame   0x000032d0      0x128 contiki-OrisenStamp.a(gpio.o)
 .debug_frame   0x000033f8       0x90 contiki-OrisenStamp.a(gpio-util.o)
 .debug_frame   0x00003488       0xc4 contiki-OrisenStamp.a(i2c.o)
 .debug_frame   0x0000354c      0x2f4 contiki-OrisenStamp.a(maca.o)
 .debug_frame   0x00003840       0x58 contiki-OrisenStamp.a(uart1.o)
 .debug_frame   0x00003898       0x58 contiki-OrisenStamp.a(uart2.o)
 .debug_frame   0x000038f0       0x68 contiki-OrisenStamp.a(default_lowleve)
 .debug_frame   0x00003958       0x44 contiki-OrisenStamp.a(isr.o)
 .debug_frame   0x0000399c       0x90 contiki-OrisenStamp.a(unicast.o)
 .debug_frame   0x00003a2c       0xc0 contiki-OrisenStamp.a(ipolite.o)
 .debug_frame   0x00003aec       0xd0 contiki-OrisenStamp.a(netflood.o)
 .debug_frame   0x00003bbc       0xd4 contiki-OrisenStamp.a(multihop.o)
 .debug_frame   0x00003c90      0x100 contiki-OrisenStamp.a(trickle.o)
 .debug_frame   0x00003d90       0xa4 contiki-OrisenStamp.a(frame802154.o)
 .debug_frame   0x00003e34       0x84 contiki-OrisenStamp.a(timer.o)
 .debug_frame   0x00003eb8       0x2c contiki-OrisenStamp.a(debug-uart.o)
 .debug_frame   0x00003ee4       0x58 contiki-OrisenStamp.a(leds-arch.o)
 .debug_frame   0x00003f3c       0x20 /home/user/CodeSourcery/Sourcery_G++_Lite/bin/../lib/gcc/arm-none-eabi/4.3.2/libgcc.a(_udivsi3.o)
 .debug_frame   0x00003f5c       0x20 /home/user/CodeSourcery/Sourcery_G++_Lite/bin/../lib/gcc/arm-none-eabi/4.3.2/libgcc.a(_divsi3.o)
 .debug_frame   0x00003f7c       0x58 /home/user/CodeSourcery/Sourcery_G++_Lite/bin/../lib/gcc/arm-none-eabi/4.3.2/libgcc.a(bpabi.o)
 .debug_frame   0x00003fd4       0x38 /home/user/CodeSourcery/Sourcery_G++_Lite/bin/../lib/gcc/arm-none-eabi/4.3.2/libgcc.a(_divdi3.o)
 .debug_frame   0x0000400c       0x38 /home/user/CodeSourcery/Sourcery_G++_Lite/bin/../lib/gcc/arm-none-eabi/4.3.2/libgcc.a(_udivdi3.o)
 .debug_frame   0x00004044       0x2c /home/user/CodeSourcery/Sourcery_G++_Lite/bin/../lib/gcc/arm-none-eabi/4.3.2/../../../../arm-none-eabi/lib/libc.a(lib_a-memcmp.o)
 .debug_frame   0x00004070       0x2c /home/user/CodeSourcery/Sourcery_G++_Lite/bin/../lib/gcc/arm-none-eabi/4.3.2/../../../../arm-none-eabi/lib/libc.a(lib_a-memcpy.o)
 .debug_frame   0x0000409c       0x28 /home/user/CodeSourcery/Sourcery_G++_Lite/bin/../lib/gcc/arm-none-eabi/4.3.2/../../../../arm-none-eabi/lib/libc.a(lib_a-memset.o)
 .debug_frame   0x000040c4       0x28 /home/user/CodeSourcery/Sourcery_G++_Lite/bin/../lib/gcc/arm-none-eabi/4.3.2/../../../../arm-none-eabi/lib/libc.a(lib_a-strchr.o)
 .debug_frame   0x000040ec       0x20 /home/user/CodeSourcery/Sourcery_G++_Lite/bin/../lib/gcc/arm-none-eabi/4.3.2/../../../../arm-none-eabi/lib/libc.a(lib_a-strcmp.o)
 .debug_frame   0x0000410c       0x20 /home/user/CodeSourcery/Sourcery_G++_Lite/bin/../lib/gcc/arm-none-eabi/4.3.2/../../../../arm-none-eabi/lib/libc.a(lib_a-strlen.o)
 .debug_frame   0x0000412c       0x2c /home/user/CodeSourcery/Sourcery_G++_Lite/bin/../lib/gcc/arm-none-eabi/4.3.2/../../../../arm-none-eabi/lib/libc.a(lib_a-strncmp.o)
 .debug_frame   0x00004158       0x28 /home/user/CodeSourcery/Sourcery_G++_Lite/bin/../lib/gcc/arm-none-eabi/4.3.2/../../../../arm-none-eabi/lib/libc.a(lib_a-strncpy.o)
 .debug_frame   0x00004180       0x8c /home/user/CodeSourcery/Sourcery_G++_Lite/bin/../lib/gcc/arm-none-eabi/4.3.2/../../../../arm-none-eabi/lib/libc.a(lib_a-strstr.o)
 .debug_frame   0x0000420c       0x28 /home/user/CodeSourcery/Sourcery_G++_Lite/bin/../lib/gcc/arm-none-eabi/4.3.2/../../../../arm-none-eabi/lib/libc.a(lib_a-memchr.o)

.debug_str      0x00000000     0x8ecc
 *(.debug_str)
 .debug_str     0x00000000     0x350e boot.co
                               0x39aa (size before relaxing)
 .debug_str     0x0000350e      0x475 obj_OrisenStamp/commands.o
                               0x3fae (size before relaxing)
 .debug_str     0x00003983      0x144 obj_OrisenStamp/uart2_handler.o
                               0x3a9d (size before relaxing)
 .debug_str     0x00003ac7      0x27c obj_OrisenStamp/mesh_my.o
                                0xa66 (size before relaxing)
 .debug_str     0x00003d43      0x1e6 obj_OrisenStamp/rudolph1_my.o
                                0xa90 (size before relaxing)
 .debug_str     0x00003f29       0x4c obj_OrisenStamp/settings_read.o
                                0x7c5 (size before relaxing)
 .debug_str     0x00003f75       0x52 obj_OrisenStamp/uarts_test.o
                               0x397f (size before relaxing)
 .debug_str     0x00003fc7      0x3f4 obj_OrisenStamp/contiki-stamp-main.o
                               0x3e23 (size before relaxing)
 .debug_str     0x000043bb       0x5d contiki-OrisenStamp.a(rimeaddr.o)
                                0x6f7 (size before relaxing)
 .debug_str     0x00004418      0x16f contiki-OrisenStamp.a(rime.o)
                                0x91a (size before relaxing)
 .debug_str     0x00004587       0x20 contiki-OrisenStamp.a(rimestats.o)
                                 0xf3 (size before relaxing)
 .debug_str     0x000045a7      0x19f contiki-OrisenStamp.a(announcement.o)
                                0x882 (size before relaxing)
 .debug_str     0x00004746      0x172 contiki-OrisenStamp.a(broadcast-annou)
                                0x9da (size before relaxing)
 .debug_str     0x000048b8      0x34e contiki-OrisenStamp.a(broadcast.o)
                                0xade (size before relaxing)
 .debug_str     0x00004c06       0x49 contiki-OrisenStamp.a(abc.o)
                                0x7a3 (size before relaxing)
 .debug_str     0x00004c4f       0xce contiki-OrisenStamp.a(mesh.o)
                                0xa6e (size before relaxing)
 .debug_str     0x00004d1d      0x10b contiki-OrisenStamp.a(route.o)
                                0x868 (size before relaxing)
 .debug_str     0x00004e28      0x131 contiki-OrisenStamp.a(route-discovery)
                                0xaa9 (size before relaxing)
 .debug_str     0x00004f59      0x101 contiki-OrisenStamp.a(rudolph1.o)
                                0xa5d (size before relaxing)
 .debug_str     0x0000505a       0x97 contiki-OrisenStamp.a(chameleon.o)
                                0xa86 (size before relaxing)
 .debug_str     0x000050f1       0x8b contiki-OrisenStamp.a(channel.o)
                                0x7a8 (size before relaxing)
 .debug_str     0x0000517c       0xbb contiki-OrisenStamp.a(chameleon-bitop)
                                0xb1d (size before relaxing)
 .debug_str     0x00005237       0xb5 contiki-OrisenStamp.a(nullrdc.o)
                                0xbd4 (size before relaxing)
 .debug_str     0x000052ec       0x30 contiki-OrisenStamp.a(mac.o)
                                0x70c (size before relaxing)
 .debug_str     0x0000531c      0x1aa contiki-OrisenStamp.a(framer-802154.o)
                                0xbc8 (size before relaxing)
 .debug_str     0x000054c6      0x1f8 contiki-OrisenStamp.a(csma.o)
                                0xda5 (size before relaxing)
 .debug_str     0x000056be      0x15b contiki-OrisenStamp.a(process.o)
                                0x83f (size before relaxing)
 .debug_str     0x00005819       0x3a contiki-OrisenStamp.a(autostart.o)
                                0x6f7 (size before relaxing)
 .debug_str     0x00005853       0xb2 contiki-OrisenStamp.a(serial-line.o)
                                0x7f4 (size before relaxing)
 .debug_str     0x00005905       0x41 contiki-OrisenStamp.a(memb.o)
                                0x6bc (size before relaxing)
 .debug_str     0x00005946       0xa8 contiki-OrisenStamp.a(list.o)
                                 0xf1 (size before relaxing)
 .debug_str     0x000059ee      0x133 contiki-OrisenStamp.a(etimer.o)
                                0x84c (size before relaxing)
 .debug_str     0x00005b21       0xad contiki-OrisenStamp.a(ctimer.o)
                                0x7e0 (size before relaxing)
 .debug_str     0x00005bce       0x35 contiki-OrisenStamp.a(random.o)
                                0x69b (size before relaxing)
 .debug_str     0x00005c03       0x5c contiki-OrisenStamp.a(ringbuf.o)
                                0x6f4 (size before relaxing)
 .debug_str     0x00005c5f      0x1df contiki-OrisenStamp.a(packetbuf.o)
                                0xbbd (size before relaxing)
 .debug_str     0x00005e3e      0x185 contiki-OrisenStamp.a(queuebuf.o)
                                0xb8b (size before relaxing)
 .debug_str     0x00005fc3       0xa0 contiki-OrisenStamp.a(serial-shell.o)
                                0x81c (size before relaxing)
 .debug_str     0x00006063      0x378 contiki-OrisenStamp.a(shell.o)
                                0xbe9 (size before relaxing)
 .debug_str     0x000063db       0x65 contiki-OrisenStamp.a(shell-reboot.o)
                                0x79c (size before relaxing)
 .debug_str     0x00006440      0x156 contiki-OrisenStamp.a(shell-file.o)
                                0x903 (size before relaxing)
 .debug_str     0x00006596       0xbc contiki-OrisenStamp.a(clock.o)
                               0x39ff (size before relaxing)
 .debug_str     0x00006652       0x36 contiki-OrisenStamp.a(button-sensor.o)
                               0x3904 (size before relaxing)
 .debug_str     0x00006688       0x94 contiki-OrisenStamp.a(sensors.o)
                                0x7cb (size before relaxing)
 .debug_str     0x0000671c      0x3ef contiki-OrisenStamp.a(uSDcard.o)
                               0x3e71 (size before relaxing)
 .debug_str     0x00006b0b      0x2a0 contiki-OrisenStamp.a(ff.o)
                                0x58f (size before relaxing)
 .debug_str     0x00006dab      0x2b4 contiki-OrisenStamp.a(diskio.o)
                               0x308f (size before relaxing)
 .debug_str     0x0000705f       0xd3 contiki-OrisenStamp.a(cfs-fat.o)
                               0x3c04 (size before relaxing)
 .debug_str     0x00007132      0x1eb contiki-OrisenStamp.a(RTC.o)
                               0x3b51 (size before relaxing)
 .debug_str     0x0000731d      0x13d contiki-OrisenStamp.a(kbi_events.o)
                               0x3a81 (size before relaxing)
 .debug_str     0x0000745a      0x13f contiki-OrisenStamp.a(io-pins.o)
                               0x352f (size before relaxing)
 .debug_str     0x00007599       0x6c contiki-OrisenStamp.a(watchdog.o)
                                 0x9a (size before relaxing)
 .debug_str     0x00007605       0x61 contiki-OrisenStamp.a(contiki-crm.o)
                               0x3903 (size before relaxing)
 .debug_str     0x00007666      0x1d2 contiki-OrisenStamp.a(contiki-maca.o)
                               0x3f7a (size before relaxing)
 .debug_str     0x00007838       0x64 contiki-OrisenStamp.a(contiki-misc.o)
                               0x3908 (size before relaxing)
 .debug_str     0x0000789c       0x6c contiki-OrisenStamp.a(leds.o)
                                0x6e1 (size before relaxing)
 .debug_str     0x00007908       0x33 contiki-OrisenStamp.a(contiki-uart.o)
                                 0x89 (size before relaxing)
 .debug_str     0x0000793b       0x7e contiki-OrisenStamp.a(dbg-printf.o)
                                0x178 (size before relaxing)
 .debug_str     0x000079b9       0x4f contiki-OrisenStamp.a(dbg-sprintf.o)
                                0x18c (size before relaxing)
 .debug_str     0x00007a08      0x120 contiki-OrisenStamp.a(strformat.o)
                                0x233 (size before relaxing)
 .debug_str     0x00007b28       0x44 contiki-OrisenStamp.a(adc.o)
                                0x90e (size before relaxing)
 .debug_str     0x00007b6c       0xc0 contiki-OrisenStamp.a(gpio.o)
                               0x395a (size before relaxing)
 .debug_str     0x00007c2c       0xa4 contiki-OrisenStamp.a(gpio-util.o)
                               0x394c (size before relaxing)
 .debug_str     0x00007cd0       0xe3 contiki-OrisenStamp.a(i2c.o)
                               0x2ec2 (size before relaxing)
 .debug_str     0x00007db3      0x6ff contiki-OrisenStamp.a(maca.o)
                               0x4260 (size before relaxing)
 .debug_str     0x000084b2       0x26 contiki-OrisenStamp.a(nvm.o)
                                0x2a3 (size before relaxing)
 .debug_str     0x000084d8       0x88 contiki-OrisenStamp.a(uart1.o)
                               0x393b (size before relaxing)
 .debug_str     0x00008560       0x8e contiki-OrisenStamp.a(uart2.o)
                               0x392b (size before relaxing)
 .debug_str     0x000085ee       0x56 contiki-OrisenStamp.a(default_lowleve)
                               0x39df (size before relaxing)
 .debug_str     0x00008644       0x45 contiki-OrisenStamp.a(isr.o)
                               0x397c (size before relaxing)
 .debug_str     0x00008689       0x6c contiki-OrisenStamp.a(unicast.o)
                                0xb08 (size before relaxing)
 .debug_str     0x000086f5       0x55 contiki-OrisenStamp.a(ipolite.o)
                                0x886 (size before relaxing)
 .debug_str     0x0000874a       0x82 contiki-OrisenStamp.a(netflood.o)
                                0x92f (size before relaxing)
 .debug_str     0x000087cc       0x5a contiki-OrisenStamp.a(multihop.o)
                                0xb57 (size before relaxing)
 .debug_str     0x00008826       0x7a contiki-OrisenStamp.a(trickle.o)
                                0xbc0 (size before relaxing)
 .debug_str     0x000088a0       0xca contiki-OrisenStamp.a(frame802154.o)
                                0x8b1 (size before relaxing)
 .debug_str     0x0000896a       0x27 contiki-OrisenStamp.a(timer.o)
                                0x6e1 (size before relaxing)
 .debug_str     0x00008991       0x30 contiki-OrisenStamp.a(debug-uart.o)
                                0x691 (size before relaxing)
 .debug_str     0x000089c1      0x50b contiki-OrisenStamp.a(leds-arch.o)
                               0x3da0 (size before relaxing)

.debug_loc      0x00000000     0xf484
 *(.debug_loc)
 .debug_loc     0x00000000       0x79 boot.co
 .debug_loc     0x00000079      0xb7a obj_OrisenStamp/commands.o
 .debug_loc     0x00000bf3      0x276 obj_OrisenStamp/uart2_handler.o
 .debug_loc     0x00000e69      0x25c obj_OrisenStamp/mesh_my.o
 .debug_loc     0x000010c5      0x363 obj_OrisenStamp/rudolph1_my.o
 .debug_loc     0x00001428      0x163 obj_OrisenStamp/settings_read.o
 .debug_loc     0x0000158b       0xa3 obj_OrisenStamp/uarts_test.o
 .debug_loc     0x0000162e      0x1cf obj_OrisenStamp/contiki-stamp-main.o
 .debug_loc     0x000017fd       0x7a contiki-OrisenStamp.a(rimeaddr.o)
 .debug_loc     0x00001877      0x1f4 contiki-OrisenStamp.a(rime.o)
 .debug_loc     0x00001a6b      0x2f6 contiki-OrisenStamp.a(announcement.o)
 .debug_loc     0x00001d61      0x2c2 contiki-OrisenStamp.a(broadcast-annou)
 .debug_loc     0x00002023      0x1aa contiki-OrisenStamp.a(broadcast.o)
 .debug_loc     0x000021cd      0x188 contiki-OrisenStamp.a(abc.o)
 .debug_loc     0x00002355      0x36a contiki-OrisenStamp.a(mesh.o)
 .debug_loc     0x000026bf      0x3a5 contiki-OrisenStamp.a(route.o)
 .debug_loc     0x00002a64      0x3c6 contiki-OrisenStamp.a(route-discovery)
 .debug_loc     0x00002e2a      0x419 contiki-OrisenStamp.a(rudolph1.o)
 .debug_loc     0x00003243       0xfc contiki-OrisenStamp.a(chameleon.o)
 .debug_loc     0x0000333f      0x18b contiki-OrisenStamp.a(channel.o)
 .debug_loc     0x000034ca      0x53c contiki-OrisenStamp.a(chameleon-bitop)
 .debug_loc     0x00003a06      0x1cb contiki-OrisenStamp.a(nullrdc.o)
 .debug_loc     0x00003bd1       0xb8 contiki-OrisenStamp.a(mac.o)
 .debug_loc     0x00003c89       0xec contiki-OrisenStamp.a(framer-802154.o)
 .debug_loc     0x00003d75      0x3d9 contiki-OrisenStamp.a(csma.o)
 .debug_loc     0x0000414e      0x3c7 contiki-OrisenStamp.a(process.o)
 .debug_loc     0x00004515       0x7a contiki-OrisenStamp.a(autostart.o)
 .debug_loc     0x0000458f      0x237 contiki-OrisenStamp.a(serial-line.o)
 .debug_loc     0x000047c6      0x16c contiki-OrisenStamp.a(memb.o)
 .debug_loc     0x00004932      0x328 contiki-OrisenStamp.a(list.o)
 .debug_loc     0x00004c5a      0x3e9 contiki-OrisenStamp.a(etimer.o)
 .debug_loc     0x00005043      0x303 contiki-OrisenStamp.a(ctimer.o)
 .debug_loc     0x00005346       0x51 contiki-OrisenStamp.a(random.o)
 .debug_loc     0x00005397       0xdc contiki-OrisenStamp.a(ringbuf.o)
 .debug_loc     0x00005473      0x31d contiki-OrisenStamp.a(packetbuf.o)
 .debug_loc     0x00005790      0x214 contiki-OrisenStamp.a(queuebuf.o)
 .debug_loc     0x000059a4      0x1fd contiki-OrisenStamp.a(serial-shell.o)
 .debug_loc     0x00005ba1      0xbe3 contiki-OrisenStamp.a(shell.o)
 .debug_loc     0x00006784      0x11c contiki-OrisenStamp.a(shell-reboot.o)
 .debug_loc     0x000068a0      0x4ab contiki-OrisenStamp.a(shell-file.o)
 .debug_loc     0x00006d4b      0x1ab contiki-OrisenStamp.a(clock.o)
 .debug_loc     0x00006ef6       0xf4 contiki-OrisenStamp.a(button-sensor.o)
 .debug_loc     0x00006fea      0x212 contiki-OrisenStamp.a(sensors.o)
 .debug_loc     0x000071fc      0x276 contiki-OrisenStamp.a(uSDcard.o)
 .debug_loc     0x00007472     0x3004 contiki-OrisenStamp.a(ff.o)
 .debug_loc     0x0000a476      0x6cb contiki-OrisenStamp.a(diskio.o)
 .debug_loc     0x0000ab41      0x2ba contiki-OrisenStamp.a(cfs-fat.o)
 .debug_loc     0x0000adfb      0x575 contiki-OrisenStamp.a(RTC.o)
 .debug_loc     0x0000b370      0x1ca contiki-OrisenStamp.a(kbi_events.o)
 .debug_loc     0x0000b53a      0x43a contiki-OrisenStamp.a(io-pins.o)
 .debug_loc     0x0000b974       0x70 contiki-OrisenStamp.a(contiki-crm.o)
 .debug_loc     0x0000b9e4      0x29d contiki-OrisenStamp.a(contiki-maca.o)
 .debug_loc     0x0000bc81       0x50 contiki-OrisenStamp.a(contiki-misc.o)
 .debug_loc     0x0000bcd1      0x16a contiki-OrisenStamp.a(leds.o)
 .debug_loc     0x0000be3b       0xd0 contiki-OrisenStamp.a(dbg-printf.o)
 .debug_loc     0x0000bf0b       0xe4 contiki-OrisenStamp.a(dbg-sprintf.o)
 .debug_loc     0x0000bfef      0xcf1 contiki-OrisenStamp.a(strformat.o)
 .debug_loc     0x0000cce0       0x9a contiki-OrisenStamp.a(adc.o)
 .debug_loc     0x0000cd7a      0x1d2 contiki-OrisenStamp.a(gpio.o)
 .debug_loc     0x0000cf4c      0x161 contiki-OrisenStamp.a(gpio-util.o)
 .debug_loc     0x0000d0ad      0x16c contiki-OrisenStamp.a(i2c.o)
 .debug_loc     0x0000d219      0xe0b contiki-OrisenStamp.a(maca.o)
 .debug_loc     0x0000e024       0xd5 contiki-OrisenStamp.a(uart1.o)
 .debug_loc     0x0000e0f9       0xb7 contiki-OrisenStamp.a(uart2.o)
 .debug_loc     0x0000e1b0      0x1a6 contiki-OrisenStamp.a(default_lowleve)
 .debug_loc     0x0000e356       0x1f contiki-OrisenStamp.a(isr.o)
 .debug_loc     0x0000e375      0x1cf contiki-OrisenStamp.a(unicast.o)
 .debug_loc     0x0000e544      0x245 contiki-OrisenStamp.a(ipolite.o)
 .debug_loc     0x0000e789      0x290 contiki-OrisenStamp.a(netflood.o)
 .debug_loc     0x0000ea19      0x2c0 contiki-OrisenStamp.a(multihop.o)
 .debug_loc     0x0000ecd9      0x328 contiki-OrisenStamp.a(trickle.o)
 .debug_loc     0x0000f001      0x29e contiki-OrisenStamp.a(frame802154.o)
 .debug_loc     0x0000f29f       0xfc contiki-OrisenStamp.a(timer.o)
 .debug_loc     0x0000f39b       0x79 contiki-OrisenStamp.a(debug-uart.o)
 .debug_loc     0x0000f414       0x70 contiki-OrisenStamp.a(leds-arch.o)

.debug_macinfo
 *(.debug_macinfo)

.debug_weaknames
 *(.debug_weaknames)

.debug_funcnames
 *(.debug_funcnames)

.debug_typenames
 *(.debug_typenames)

.debug_varnames
 *(.debug_varnames)

.debug_pubtypes
 *(.debug_pubtypes)

.debug_ranges   0x00000000     0x1d68
 *(.debug_ranges)
 .debug_ranges  0x00000000       0x30 boot.co
 .debug_ranges  0x00000030      0x2a0 obj_OrisenStamp/commands.o
 .debug_ranges  0x000002d0       0x80 obj_OrisenStamp/uart2_handler.o
 .debug_ranges  0x00000350       0x48 obj_OrisenStamp/mesh_my.o
 .debug_ranges  0x00000398       0x88 obj_OrisenStamp/rudolph1_my.o
 .debug_ranges  0x00000420       0x20 obj_OrisenStamp/settings_read.o
 .debug_ranges  0x00000440       0x38 obj_OrisenStamp/uarts_test.o
 .debug_ranges  0x00000478       0x68 obj_OrisenStamp/contiki-stamp-main.o
 .debug_ranges  0x000004e0       0x28 contiki-OrisenStamp.a(rimeaddr.o)
 .debug_ranges  0x00000508       0x40 contiki-OrisenStamp.a(rime.o)
 .debug_ranges  0x00000548       0x68 contiki-OrisenStamp.a(announcement.o)
 .debug_ranges  0x000005b0       0x58 contiki-OrisenStamp.a(broadcast-annou)
 .debug_ranges  0x00000608       0x38 contiki-OrisenStamp.a(broadcast.o)
 .debug_ranges  0x00000640       0x38 contiki-OrisenStamp.a(abc.o)
 .debug_ranges  0x00000678       0x48 contiki-OrisenStamp.a(mesh.o)
 .debug_ranges  0x000006c0       0x68 contiki-OrisenStamp.a(route.o)
 .debug_ranges  0x00000728       0xe0 contiki-OrisenStamp.a(route-discovery)
 .debug_ranges  0x00000808       0xa8 contiki-OrisenStamp.a(rudolph1.o)
 .debug_ranges  0x000008b0       0x38 contiki-OrisenStamp.a(chameleon.o)
 .debug_ranges  0x000008e8       0x38 contiki-OrisenStamp.a(channel.o)
 .debug_ranges  0x00000920       0x48 contiki-OrisenStamp.a(chameleon-bitop)
 .debug_ranges  0x00000968       0x68 contiki-OrisenStamp.a(nullrdc.o)
 .debug_ranges  0x000009d0       0x18 contiki-OrisenStamp.a(mac.o)
 .debug_ranges  0x000009e8       0x38 contiki-OrisenStamp.a(framer-802154.o)
 .debug_ranges  0x00000a20       0xc8 contiki-OrisenStamp.a(csma.o)
 .debug_ranges  0x00000ae8       0x78 contiki-OrisenStamp.a(process.o)
 .debug_ranges  0x00000b60       0x20 contiki-OrisenStamp.a(autostart.o)
 .debug_ranges  0x00000b80       0x40 contiki-OrisenStamp.a(serial-line.o)
 .debug_ranges  0x00000bc0       0x30 contiki-OrisenStamp.a(memb.o)
 .debug_ranges  0x00000bf0       0x70 contiki-OrisenStamp.a(list.o)
 .debug_ranges  0x00000c60       0x80 contiki-OrisenStamp.a(etimer.o)
 .debug_ranges  0x00000ce0       0x60 contiki-OrisenStamp.a(ctimer.o)
 .debug_ranges  0x00000d40       0x20 contiki-OrisenStamp.a(random.o)
 .debug_ranges  0x00000d60       0x38 contiki-OrisenStamp.a(ringbuf.o)
 .debug_ranges  0x00000d98       0xb8 contiki-OrisenStamp.a(packetbuf.o)
 .debug_ranges  0x00000e50       0x60 contiki-OrisenStamp.a(queuebuf.o)
 .debug_ranges  0x00000eb0       0x50 contiki-OrisenStamp.a(serial-shell.o)
 .debug_ranges  0x00000f00      0x170 contiki-OrisenStamp.a(shell.o)
 .debug_ranges  0x00001070       0x20 contiki-OrisenStamp.a(shell-reboot.o)
 .debug_ranges  0x00001090       0x70 contiki-OrisenStamp.a(shell-file.o)
 .debug_ranges  0x00001100       0x58 contiki-OrisenStamp.a(clock.o)
 .debug_ranges  0x00001158       0x30 contiki-OrisenStamp.a(button-sensor.o)
 .debug_ranges  0x00001188       0x58 contiki-OrisenStamp.a(sensors.o)
 .debug_ranges  0x000011e0       0x70 contiki-OrisenStamp.a(uSDcard.o)
 .debug_ranges  0x00001250      0x1a8 contiki-OrisenStamp.a(ff.o)
 .debug_ranges  0x000013f8       0x80 contiki-OrisenStamp.a(diskio.o)
 .debug_ranges  0x00001478       0x60 contiki-OrisenStamp.a(cfs-fat.o)
 .debug_ranges  0x000014d8       0xc0 contiki-OrisenStamp.a(RTC.o)
 .debug_ranges  0x00001598       0x60 contiki-OrisenStamp.a(kbi_events.o)
 .debug_ranges  0x000015f8       0x58 contiki-OrisenStamp.a(io-pins.o)
 .debug_ranges  0x00001650       0x38 contiki-OrisenStamp.a(watchdog.o)
 .debug_ranges  0x00001688       0x28 contiki-OrisenStamp.a(contiki-crm.o)
 .debug_ranges  0x000016b0       0x90 contiki-OrisenStamp.a(contiki-maca.o)
 .debug_ranges  0x00001740       0x30 contiki-OrisenStamp.a(contiki-misc.o)
 .debug_ranges  0x00001770       0x50 contiki-OrisenStamp.a(leds.o)
 .debug_ranges  0x000017c0       0x18 contiki-OrisenStamp.a(contiki-uart.o)
 .debug_ranges  0x000017d8       0x20 contiki-OrisenStamp.a(dbg-printf.o)
 .debug_ranges  0x000017f8       0x20 contiki-OrisenStamp.a(dbg-sprintf.o)
 .debug_ranges  0x00001818       0x38 contiki-OrisenStamp.a(strformat.o)
 .debug_ranges  0x00001850       0x30 contiki-OrisenStamp.a(adc.o)
 .debug_ranges  0x00001880       0x60 contiki-OrisenStamp.a(gpio.o)
 .debug_ranges  0x000018e0       0x48 contiki-OrisenStamp.a(gpio-util.o)
 .debug_ranges  0x00001928       0x50 contiki-OrisenStamp.a(i2c.o)
 .debug_ranges  0x00001978      0x108 contiki-OrisenStamp.a(maca.o)
 .debug_ranges  0x00001a80       0x28 contiki-OrisenStamp.a(uart1.o)
 .debug_ranges  0x00001aa8       0x28 contiki-OrisenStamp.a(uart2.o)
 .debug_ranges  0x00001ad0       0x28 contiki-OrisenStamp.a(default_lowleve)
 .debug_ranges  0x00001af8       0x20 contiki-OrisenStamp.a(isr.o)
 .debug_ranges  0x00001b18       0x38 contiki-OrisenStamp.a(unicast.o)
 .debug_ranges  0x00001b50       0x48 contiki-OrisenStamp.a(ipolite.o)
 .debug_ranges  0x00001b98       0x48 contiki-OrisenStamp.a(netflood.o)
 .debug_ranges  0x00001be0       0x50 contiki-OrisenStamp.a(multihop.o)
 .debug_ranges  0x00001c30       0x88 contiki-OrisenStamp.a(trickle.o)
 .debug_ranges  0x00001cb8       0x38 contiki-OrisenStamp.a(frame802154.o)
 .debug_ranges  0x00001cf0       0x38 contiki-OrisenStamp.a(timer.o)
 .debug_ranges  0x00001d28       0x18 contiki-OrisenStamp.a(debug-uart.o)
 .debug_ranges  0x00001d40       0x28 contiki-OrisenStamp.a(leds-arch.o)

.gnu.attributes
 *(.gnu.attributes)

.note.gnu.arm.ident
 *(.note.gnu.arm.ident)

/DISCARD/
 *(.note.GNU-stack)
 *(.gnu_debuglink)
OUTPUT(boot.elf elf32-littlearm)

.ARM.attributes
                0x00000000       0x32
 .ARM.attributes
                0x00000000       0x30 boot.co
 .ARM.attributes
                0x00000030       0x32 obj_OrisenStamp/commands.o
 .ARM.attributes
                0x00000062       0x32 obj_OrisenStamp/uart2_handler.o
 .ARM.attributes
                0x00000094       0x32 obj_OrisenStamp/mesh_my.o
 .ARM.attributes
                0x000000c6       0x32 obj_OrisenStamp/rudolph1_my.o
 .ARM.attributes
                0x000000f8       0x32 obj_OrisenStamp/settings_read.o
 .ARM.attributes
                0x0000012a       0x32 obj_OrisenStamp/uarts_test.o
 .ARM.attributes
                0x0000015c       0x32 obj_OrisenStamp/contiki-stamp-main.o
 .ARM.attributes
                0x0000018e       0x1a obj_OrisenStamp/start.o
 .ARM.attributes
                0x000001a8       0x32 contiki-OrisenStamp.a(rimeaddr.o)
 .ARM.attributes
                0x000001da       0x32 contiki-OrisenStamp.a(rime.o)
 .ARM.attributes
                0x0000020c       0x2e contiki-OrisenStamp.a(rimestats.o)
 .ARM.attributes
                0x0000023a       0x32 contiki-OrisenStamp.a(announcement.o)
 .ARM.attributes
                0x0000026c       0x32 contiki-OrisenStamp.a(broadcast-annou)
 .ARM.attributes
                0x0000029e       0x32 contiki-OrisenStamp.a(broadcast.o)
 .ARM.attributes
                0x000002d0       0x32 contiki-OrisenStamp.a(abc.o)
 .ARM.attributes
                0x00000302       0x32 contiki-OrisenStamp.a(mesh.o)
 .ARM.attributes
                0x00000334       0x32 contiki-OrisenStamp.a(route.o)
 .ARM.attributes
                0x00000366       0x32 contiki-OrisenStamp.a(route-discovery)
 .ARM.attributes
                0x00000398       0x32 contiki-OrisenStamp.a(rudolph1.o)
 .ARM.attributes
                0x000003ca       0x32 contiki-OrisenStamp.a(chameleon.o)
 .ARM.attributes
                0x000003fc       0x32 contiki-OrisenStamp.a(channel.o)
 .ARM.attributes
                0x0000042e       0x32 contiki-OrisenStamp.a(chameleon-bitop)
 .ARM.attributes
                0x00000460       0x30 contiki-OrisenStamp.a(nullrdc.o)
 .ARM.attributes
                0x00000490       0x32 contiki-OrisenStamp.a(mac.o)
 .ARM.attributes
                0x000004c2       0x30 contiki-OrisenStamp.a(framer-802154.o)
 .ARM.attributes
                0x000004f2       0x30 contiki-OrisenStamp.a(csma.o)
 .ARM.attributes
                0x00000522       0x32 contiki-OrisenStamp.a(process.o)
 .ARM.attributes
                0x00000554       0x32 contiki-OrisenStamp.a(autostart.o)
 .ARM.attributes
                0x00000586       0x32 contiki-OrisenStamp.a(serial-line.o)
 .ARM.attributes
                0x000005b8       0x32 contiki-OrisenStamp.a(memb.o)
 .ARM.attributes
                0x000005ea       0x32 contiki-OrisenStamp.a(list.o)
 .ARM.attributes
                0x0000061c       0x32 contiki-OrisenStamp.a(etimer.o)
 .ARM.attributes
                0x0000064e       0x32 contiki-OrisenStamp.a(ctimer.o)
 .ARM.attributes
                0x00000680       0x32 contiki-OrisenStamp.a(random.o)
 .ARM.attributes
                0x000006b2       0x32 contiki-OrisenStamp.a(ringbuf.o)
 .ARM.attributes
                0x000006e4       0x32 contiki-OrisenStamp.a(packetbuf.o)
 .ARM.attributes
                0x00000716       0x32 contiki-OrisenStamp.a(queuebuf.o)
 .ARM.attributes
                0x00000748       0x32 contiki-OrisenStamp.a(serial-shell.o)
 .ARM.attributes
                0x0000077a       0x32 contiki-OrisenStamp.a(shell.o)
 .ARM.attributes
                0x000007ac       0x32 contiki-OrisenStamp.a(shell-reboot.o)
 .ARM.attributes
                0x000007de       0x32 contiki-OrisenStamp.a(shell-file.o)
 .ARM.attributes
                0x00000810       0x32 contiki-OrisenStamp.a(clock.o)
 .ARM.attributes
                0x00000842       0x32 contiki-OrisenStamp.a(button-sensor.o)
 .ARM.attributes
                0x00000874       0x32 contiki-OrisenStamp.a(sensors.o)
 .ARM.attributes
                0x000008a6       0x32 contiki-OrisenStamp.a(uSDcard.o)
 .ARM.attributes
                0x000008d8       0x32 contiki-OrisenStamp.a(ff.o)
 .ARM.attributes
                0x0000090a       0x32 contiki-OrisenStamp.a(diskio.o)
 .ARM.attributes
                0x0000093c       0x32 contiki-OrisenStamp.a(cfs-fat.o)
 .ARM.attributes
                0x0000096e       0x32 contiki-OrisenStamp.a(RTC.o)
 .ARM.attributes
                0x000009a0       0x32 contiki-OrisenStamp.a(kbi_events.o)
 .ARM.attributes
                0x000009d2       0x32 contiki-OrisenStamp.a(io-pins.o)
 .ARM.attributes
                0x00000a04       0x32 contiki-OrisenStamp.a(watchdog.o)
 .ARM.attributes
                0x00000a36       0x32 contiki-OrisenStamp.a(contiki-crm.o)
 .ARM.attributes
                0x00000a68       0x32 contiki-OrisenStamp.a(contiki-maca.o)
 .ARM.attributes
                0x00000a9a       0x32 contiki-OrisenStamp.a(contiki-misc.o)
 .ARM.attributes
                0x00000acc       0x32 contiki-OrisenStamp.a(leds.o)
 .ARM.attributes
                0x00000afe       0x32 contiki-OrisenStamp.a(contiki-uart.o)
 .ARM.attributes
                0x00000b30       0x32 contiki-OrisenStamp.a(dbg-printf.o)
 .ARM.attributes
                0x00000b62       0x32 contiki-OrisenStamp.a(dbg-sprintf.o)
 .ARM.attributes
                0x00000b94       0x32 contiki-OrisenStamp.a(strformat.o)
 .ARM.attributes
                0x00000bc6       0x32 contiki-OrisenStamp.a(adc.o)
 .ARM.attributes
                0x00000bf8       0x32 contiki-OrisenStamp.a(gpio.o)
 .ARM.attributes
                0x00000c2a       0x32 contiki-OrisenStamp.a(gpio-util.o)
 .ARM.attributes
                0x00000c5c       0x32 contiki-OrisenStamp.a(i2c.o)
 .ARM.attributes
                0x00000c8e       0x32 contiki-OrisenStamp.a(maca.o)
 .ARM.attributes
                0x00000cc0       0x2e contiki-OrisenStamp.a(nvm.o)
 .ARM.attributes
                0x00000cee       0x32 contiki-OrisenStamp.a(uart1.o)
 .ARM.attributes
                0x00000d20       0x32 contiki-OrisenStamp.a(uart2.o)
 .ARM.attributes
                0x00000d52       0x32 contiki-OrisenStamp.a(default_lowleve)
 .ARM.attributes
                0x00000d84       0x30 contiki-OrisenStamp.a(isr.o)
 .ARM.attributes
                0x00000db4       0x32 contiki-OrisenStamp.a(unicast.o)
 .ARM.attributes
                0x00000de6       0x32 contiki-OrisenStamp.a(ipolite.o)
 .ARM.attributes
                0x00000e18       0x32 contiki-OrisenStamp.a(netflood.o)
 .ARM.attributes
                0x00000e4a       0x32 contiki-OrisenStamp.a(multihop.o)
 .ARM.attributes
                0x00000e7c       0x32 contiki-OrisenStamp.a(trickle.o)
 .ARM.attributes
                0x00000eae       0x32 contiki-OrisenStamp.a(frame802154.o)
 .ARM.attributes
                0x00000ee0       0x32 contiki-OrisenStamp.a(timer.o)
 .ARM.attributes
                0x00000f12       0x32 contiki-OrisenStamp.a(debug-uart.o)
 .ARM.attributes
                0x00000f44       0x32 contiki-OrisenStamp.a(leds-arch.o)
 .ARM.attributes
                0x00000f76       0x14 /home/user/CodeSourcery/Sourcery_G++_Lite/bin/../lib/gcc/arm-none-eabi/4.3.2/libgcc.a(_udivsi3.o)
 .ARM.attributes
                0x00000f8a       0x14 /home/user/CodeSourcery/Sourcery_G++_Lite/bin/../lib/gcc/arm-none-eabi/4.3.2/libgcc.a(_divsi3.o)
 .ARM.attributes
                0x00000f9e       0x14 /home/user/CodeSourcery/Sourcery_G++_Lite/bin/../lib/gcc/arm-none-eabi/4.3.2/libgcc.a(_dvmd_tls.o)
 .ARM.attributes
                0x00000fb2       0x14 /home/user/CodeSourcery/Sourcery_G++_Lite/bin/../lib/gcc/arm-none-eabi/4.3.2/libgcc.a(_aeabi_uldivmod.o)
 .ARM.attributes
                0x00000fc6       0x2e /home/user/CodeSourcery/Sourcery_G++_Lite/bin/../lib/gcc/arm-none-eabi/4.3.2/libgcc.a(bpabi.o)
 .ARM.attributes
                0x00000ff4       0x2e /home/user/CodeSourcery/Sourcery_G++_Lite/bin/../lib/gcc/arm-none-eabi/4.3.2/libgcc.a(_divdi3.o)
 .ARM.attributes
                0x00001022       0x2e /home/user/CodeSourcery/Sourcery_G++_Lite/bin/../lib/gcc/arm-none-eabi/4.3.2/libgcc.a(_udivdi3.o)
 .ARM.attributes
                0x00001050       0x2c /home/user/CodeSourcery/Sourcery_G++_Lite/bin/../lib/gcc/arm-none-eabi/4.3.2/libgcc.a(_clz.o)
 .ARM.attributes
                0x0000107c       0x2c /home/user/CodeSourcery/Sourcery_G++_Lite/bin/../lib/gcc/arm-none-eabi/4.3.2/../../../../arm-none-eabi/lib/libc.a(lib_a-ctype_.o)
 .ARM.attributes
                0x000010a8       0x2e /home/user/CodeSourcery/Sourcery_G++_Lite/bin/../lib/gcc/arm-none-eabi/4.3.2/../../../../arm-none-eabi/lib/libc.a(lib_a-memcmp.o)
 .ARM.attributes
                0x000010d6       0x2e /home/user/CodeSourcery/Sourcery_G++_Lite/bin/../lib/gcc/arm-none-eabi/4.3.2/../../../../arm-none-eabi/lib/libc.a(lib_a-memcpy.o)
 .ARM.attributes
                0x00001104       0x2e /home/user/CodeSourcery/Sourcery_G++_Lite/bin/../lib/gcc/arm-none-eabi/4.3.2/../../../../arm-none-eabi/lib/libc.a(lib_a-memset.o)
 .ARM.attributes
                0x00001132       0x2e /home/user/CodeSourcery/Sourcery_G++_Lite/bin/../lib/gcc/arm-none-eabi/4.3.2/../../../../arm-none-eabi/lib/libc.a(lib_a-strchr.o)
 .ARM.attributes
                0x00001160       0x2e /home/user/CodeSourcery/Sourcery_G++_Lite/bin/../lib/gcc/arm-none-eabi/4.3.2/../../../../arm-none-eabi/lib/libc.a(lib_a-strcmp.o)
 .ARM.attributes
                0x0000118e       0x2e /home/user/CodeSourcery/Sourcery_G++_Lite/bin/../lib/gcc/arm-none-eabi/4.3.2/../../../../arm-none-eabi/lib/libc.a(lib_a-strlen.o)
 .ARM.attributes
                0x000011bc       0x2e /home/user/CodeSourcery/Sourcery_G++_Lite/bin/../lib/gcc/arm-none-eabi/4.3.2/../../../../arm-none-eabi/lib/libc.a(lib_a-strncmp.o)
 .ARM.attributes
                0x000011ea       0x2e /home/user/CodeSourcery/Sourcery_G++_Lite/bin/../lib/gcc/arm-none-eabi/4.3.2/../../../../arm-none-eabi/lib/libc.a(lib_a-strncpy.o)
 .ARM.attributes
                0x00001218       0x2e /home/user/CodeSourcery/Sourcery_G++_Lite/bin/../lib/gcc/arm-none-eabi/4.3.2/../../../../arm-none-eabi/lib/libc.a(lib_a-strstr.o)
 .ARM.attributes
                0x00001246       0x2e /home/user/CodeSourcery/Sourcery_G++_Lite/bin/../lib/gcc/arm-none-eabi/4.3.2/../../../../arm-none-eabi/lib/libc.a(lib_a-memchr.o)
